
out.elf:     file format elf32-tradlittlemips


Disassembly of section .reset:

bd007000 <_reset>:
bd007000:	0f401c02 	jal	bd007008 <_startup>
bd007004:	00000000 	nop

bd007008 <_startup>:
bd007008:	401a6000 	mfc0	k0,c0_status
bd00700c:	7f5a04c0 	ext	k0,k0,0x13,0x1
bd007010:	13400005 	beqz	k0,bd007028 <_no_nmi>
bd007014:	00000000 	nop
bd007018:	3c1a9d01 	lui	k0,0x9d01
bd00701c:	275ab980 	addiu	k0,k0,-18048
bd007020:	03400008 	jr	k0
bd007024:	00000000 	nop

bd007028 <_no_nmi>:
bd007028:	3c1da001 	lui	sp,0xa001
bd00702c:	27bdfff0 	addiu	sp,sp,-16
bd007030:	3c1ca000 	lui	gp,0xa000
bd007034:	279c7ff0 	addiu	gp,gp,32752
bd007038:	3c089d01 	lui	t0,0x9d01
bd00703c:	2508b9ec 	addiu	t0,t0,-17940
bd007040:	0100f809 	jalr	t0
bd007044:	00000000 	nop

bd007048 <_start_bss_init>:
bd007048:	3c08a000 	lui	t0,0xa000
bd00704c:	25080000 	addiu	t0,t0,0
bd007050:	3c09a000 	lui	t1,0xa000
bd007054:	25290008 	addiu	t1,t1,8
bd007058:	10000003 	b	bd007068 <_bss_check>
bd00705c:	00000000 	nop

bd007060 <_bss_init>:
bd007060:	ad000000 	sw	zero,0(t0)
bd007064:	25080004 	addiu	t0,t0,4

bd007068 <_bss_check>:
bd007068:	0109082b 	sltu	at,t0,t1
bd00706c:	1420fffc 	bnez	at,bd007060 <_bss_init>
bd007070:	00000000 	nop
bd007074:	3c089d01 	lui	t0,0x9d01
bd007078:	2508b220 	addiu	t0,t0,-19936
bd00707c:	0100f809 	jalr	t0
bd007080:	00000000 	nop
bd007084:	3c090000 	lui	t1,0x0
bd007088:	25290000 	addiu	t1,t1,0
bd00708c:	11200010 	beqz	t1,bd0070d0 <_ramfunc_done>
bd007090:	00000000 	nop
bd007094:	3c090001 	lui	t1,0x1
bd007098:	25290000 	addiu	t1,t1,0
bd00709c:	3c0abf88 	lui	t2,0xbf88
bd0070a0:	254a2010 	addiu	t2,t2,8208
bd0070a4:	ad490000 	sw	t1,0(t2)
bd0070a8:	3c090001 	lui	t1,0x1
bd0070ac:	25290000 	addiu	t1,t1,0
bd0070b0:	3c0abf88 	lui	t2,0xbf88
bd0070b4:	254a2020 	addiu	t2,t2,8224
bd0070b8:	ad490000 	sw	t1,0(t2)
bd0070bc:	3c090001 	lui	t1,0x1
bd0070c0:	25290000 	addiu	t1,t1,0
bd0070c4:	3c0abf88 	lui	t2,0xbf88
bd0070c8:	254a2030 	addiu	t2,t2,8240
bd0070cc:	ad490000 	sw	t1,0(t2)

bd0070d0 <_ramfunc_done>:
bd0070d0:	40804800 	mtc0	zero,c0_count
bd0070d4:	240affff 	li	t2,-1
bd0070d8:	408a5800 	mtc0	t2,c0_compare
bd0070dc:	3c080040 	lui	t0,0x40
bd0070e0:	400a6000 	mfc0	t2,c0_status
bd0070e4:	010a5025 	or	t2,t0,t2
bd0070e8:	408a6000 	mtc0	t2,c0_status
bd0070ec:	3c099d00 	lui	t1,0x9d00
bd0070f0:	25296000 	addiu	t1,t1,24576
bd0070f4:	000000c0 	ehb
bd0070f8:	40897801 	mtc0	t1,c0_ebase
bd0070fc:	3c090000 	lui	t1,0x0
bd007100:	25290001 	addiu	t1,t1,1
bd007104:	240a0000 	li	t2,0
bd007108:	7d2a4944 	ins	t2,t1,0x5,0x5
bd00710c:	408a6001 	mtc0	t2,c0_intctl
bd007110:	3c090080 	lui	t1,0x80
bd007114:	40896800 	mtc0	t1,c0_cause
bd007118:	40088000 	mfc0	t0,c0_config
bd00711c:	7d090580 	ext	t1,t0,0x16,0x1
bd007120:	00094c40 	sll	t1,t1,0x11
bd007124:	40086000 	mfc0	t0,c0_status
bd007128:	3c010058 	lui	at,0x58
bd00712c:	01014024 	and	t0,t0,at
bd007130:	01284025 	or	t0,t1,t0
bd007134:	40886000 	mtc0	t0,c0_status
bd007138:	000000c0 	ehb
bd00713c:	3c089d01 	lui	t0,0x9d01
bd007140:	2508b9f4 	addiu	t0,t0,-17932
bd007144:	0100f809 	jalr	t0
bd007148:	00000000 	nop
bd00714c:	40086000 	mfc0	t0,c0_status
bd007150:	3c01ffbf 	lui	at,0xffbf
bd007154:	3421ffff 	ori	at,at,0xffff
bd007158:	01014024 	and	t0,t0,at
bd00715c:	40886000 	mtc0	t0,c0_status
bd007160:	30840000 	andi	a0,a0,0x0
bd007164:	30a50000 	andi	a1,a1,0x0
bd007168:	3c089d01 	lui	t0,0x9d01
bd00716c:	2508b51c 	addiu	t0,t0,-19172
bd007170:	01000008 	jr	t0
bd007174:	00000000 	nop

Disassembly of section .bev_excpt:

bfc07380 <_bev_exception>:
bfc07380:	3c1a9d01 	lui	k0,0x9d01
bfc07384:	275ab5c0 	addiu	k0,k0,-19008
bfc07388:	03400008 	jr	k0
bfc0738c:	00000000 	nop

Disassembly of section .app_excpt:

9d006180 <_gen_exception>:
9d006180:	3c1a9d01 	lui	k0,0x9d01
9d006184:	275aaed8 	addiu	k0,k0,-20776
9d006188:	03400008 	jr	k0
9d00618c:	00000000 	nop

Disassembly of section .vector_0:

9d006200 <__vector_dispatch_0>:
9d006200:	0b402d94 	j	9d00b650 <_DefaultInterrupt>
9d006204:	00000000 	nop

Disassembly of section .vector_1:

9d006220 <__vector_dispatch_1>:
9d006220:	0b402d94 	j	9d00b650 <_DefaultInterrupt>
9d006224:	00000000 	nop

Disassembly of section .vector_2:

9d006240 <__vector_dispatch_2>:
9d006240:	0b402d94 	j	9d00b650 <_DefaultInterrupt>
9d006244:	00000000 	nop

Disassembly of section .vector_3:

9d006260 <__vector_dispatch_3>:
9d006260:	0b4027b6 	j	9d009ed8 <Ext0ISR>
9d006264:	00000000 	nop

Disassembly of section .vector_4:

9d006280 <__vector_dispatch_4>:
9d006280:	0b402d94 	j	9d00b650 <_DefaultInterrupt>
9d006284:	00000000 	nop

Disassembly of section .vector_5:

9d0062a0 <__vector_dispatch_5>:
9d0062a0:	0b402d94 	j	9d00b650 <_DefaultInterrupt>
9d0062a4:	00000000 	nop

Disassembly of section .vector_6:

9d0062c0 <__vector_dispatch_6>:
9d0062c0:	0b402d94 	j	9d00b650 <_DefaultInterrupt>
9d0062c4:	00000000 	nop

Disassembly of section .vector_7:

9d0062e0 <__vector_dispatch_7>:
9d0062e0:	0b402d94 	j	9d00b650 <_DefaultInterrupt>
9d0062e4:	00000000 	nop

Disassembly of section .vector_8:

9d006300 <__vector_dispatch_8>:
9d006300:	0b402d94 	j	9d00b650 <_DefaultInterrupt>
9d006304:	00000000 	nop

Disassembly of section .vector_9:

9d006320 <__vector_dispatch_9>:
9d006320:	0b402d94 	j	9d00b650 <_DefaultInterrupt>
9d006324:	00000000 	nop

Disassembly of section .vector_10:

9d006340 <__vector_dispatch_10>:
9d006340:	0b402d94 	j	9d00b650 <_DefaultInterrupt>
9d006344:	00000000 	nop

Disassembly of section .vector_11:

9d006360 <__vector_dispatch_11>:
9d006360:	0b402d94 	j	9d00b650 <_DefaultInterrupt>
9d006364:	00000000 	nop

Disassembly of section .vector_12:

9d006380 <__vector_dispatch_12>:
9d006380:	0b402d94 	j	9d00b650 <_DefaultInterrupt>
9d006384:	00000000 	nop

Disassembly of section .vector_13:

9d0063a0 <__vector_dispatch_13>:
9d0063a0:	0b402d94 	j	9d00b650 <_DefaultInterrupt>
9d0063a4:	00000000 	nop

Disassembly of section .vector_14:

9d0063c0 <__vector_dispatch_14>:
9d0063c0:	0b402d94 	j	9d00b650 <_DefaultInterrupt>
9d0063c4:	00000000 	nop

Disassembly of section .vector_15:

9d0063e0 <__vector_dispatch_15>:
9d0063e0:	0b402d94 	j	9d00b650 <_DefaultInterrupt>
9d0063e4:	00000000 	nop

Disassembly of section .vector_16:

9d006400 <__vector_dispatch_16>:
9d006400:	0b402d94 	j	9d00b650 <_DefaultInterrupt>
9d006404:	00000000 	nop

Disassembly of section .vector_17:

9d006420 <__vector_dispatch_17>:
9d006420:	0b402d94 	j	9d00b650 <_DefaultInterrupt>
9d006424:	00000000 	nop

Disassembly of section .vector_18:

9d006440 <__vector_dispatch_18>:
9d006440:	0b402d94 	j	9d00b650 <_DefaultInterrupt>
9d006444:	00000000 	nop

Disassembly of section .vector_19:

9d006460 <__vector_dispatch_19>:
9d006460:	0b402d94 	j	9d00b650 <_DefaultInterrupt>
9d006464:	00000000 	nop

Disassembly of section .vector_20:

9d006480 <__vector_dispatch_20>:
9d006480:	0b402d94 	j	9d00b650 <_DefaultInterrupt>
9d006484:	00000000 	nop

Disassembly of section .vector_21:

9d0064a0 <__vector_dispatch_21>:
9d0064a0:	0b402d94 	j	9d00b650 <_DefaultInterrupt>
9d0064a4:	00000000 	nop

Disassembly of section .vector_22:

9d0064c0 <__vector_dispatch_22>:
9d0064c0:	0b402d94 	j	9d00b650 <_DefaultInterrupt>
9d0064c4:	00000000 	nop

Disassembly of section .vector_23:

9d0064e0 <__vector_dispatch_23>:
9d0064e0:	0b402d94 	j	9d00b650 <_DefaultInterrupt>
9d0064e4:	00000000 	nop

Disassembly of section .vector_24:

9d006500 <__vector_dispatch_24>:
9d006500:	0b402d94 	j	9d00b650 <_DefaultInterrupt>
9d006504:	00000000 	nop

Disassembly of section .vector_25:

9d006520 <__vector_dispatch_25>:
9d006520:	0b402d94 	j	9d00b650 <_DefaultInterrupt>
9d006524:	00000000 	nop

Disassembly of section .vector_26:

9d006540 <__vector_dispatch_26>:
9d006540:	0b402d94 	j	9d00b650 <_DefaultInterrupt>
9d006544:	00000000 	nop

Disassembly of section .vector_27:

9d006560 <__vector_dispatch_27>:
9d006560:	0b402d94 	j	9d00b650 <_DefaultInterrupt>
9d006564:	00000000 	nop

Disassembly of section .vector_28:

9d006580 <__vector_dispatch_28>:
9d006580:	0b402d94 	j	9d00b650 <_DefaultInterrupt>
9d006584:	00000000 	nop

Disassembly of section .vector_29:

9d0065a0 <__vector_dispatch_29>:
9d0065a0:	0b402d94 	j	9d00b650 <_DefaultInterrupt>
9d0065a4:	00000000 	nop

Disassembly of section .vector_30:

9d0065c0 <__vector_dispatch_30>:
9d0065c0:	0b402d94 	j	9d00b650 <_DefaultInterrupt>
9d0065c4:	00000000 	nop

Disassembly of section .vector_31:

9d0065e0 <__vector_dispatch_31>:
9d0065e0:	0b402d94 	j	9d00b650 <_DefaultInterrupt>
9d0065e4:	00000000 	nop

Disassembly of section .vector_32:

9d006600 <__vector_dispatch_32>:
9d006600:	0b402d94 	j	9d00b650 <_DefaultInterrupt>
9d006604:	00000000 	nop

Disassembly of section .vector_33:

9d006620 <__vector_dispatch_33>:
9d006620:	0b402d94 	j	9d00b650 <_DefaultInterrupt>
9d006624:	00000000 	nop

Disassembly of section .vector_34:

9d006640 <__vector_dispatch_34>:
9d006640:	0b402d94 	j	9d00b650 <_DefaultInterrupt>
9d006644:	00000000 	nop

Disassembly of section .vector_35:

9d006660 <__vector_dispatch_35>:
9d006660:	0b402d94 	j	9d00b650 <_DefaultInterrupt>
9d006664:	00000000 	nop

Disassembly of section .vector_36:

9d006680 <__vector_dispatch_36>:
9d006680:	0b402d94 	j	9d00b650 <_DefaultInterrupt>
9d006684:	00000000 	nop

Disassembly of section .vector_37:

9d0066a0 <__vector_dispatch_37>:
9d0066a0:	0b402d94 	j	9d00b650 <_DefaultInterrupt>
9d0066a4:	00000000 	nop

Disassembly of section .vector_38:

9d0066c0 <__vector_dispatch_38>:
9d0066c0:	0b402d94 	j	9d00b650 <_DefaultInterrupt>
9d0066c4:	00000000 	nop

Disassembly of section .vector_39:

9d0066e0 <__vector_dispatch_39>:
9d0066e0:	0b402d94 	j	9d00b650 <_DefaultInterrupt>
9d0066e4:	00000000 	nop

Disassembly of section .vector_40:

9d006700 <__vector_dispatch_40>:
9d006700:	0b402d94 	j	9d00b650 <_DefaultInterrupt>
9d006704:	00000000 	nop

Disassembly of section .vector_41:

9d006720 <__vector_dispatch_41>:
9d006720:	0b402d94 	j	9d00b650 <_DefaultInterrupt>
9d006724:	00000000 	nop

Disassembly of section .vector_42:

9d006740 <__vector_dispatch_42>:
9d006740:	0b402d94 	j	9d00b650 <_DefaultInterrupt>
9d006744:	00000000 	nop

Disassembly of section .vector_43:

9d006760 <__vector_dispatch_43>:
9d006760:	0b402d94 	j	9d00b650 <_DefaultInterrupt>
9d006764:	00000000 	nop

Disassembly of section .rodata:

9d007490 <.rodata>:
9d007490:	73657250 	udi0	k1,a1,t6,0x9
9d007494:	68742073 	0x68742073
9d007498:	53552065 	beql	k0,s5,9d00f630 <__fmt_s+0x3c24>
9d00749c:	62205245 	0x62205245
9d0074a0:	6f747475 	0x6f747475
9d0074a4:	6761206e 	0x6761206e
9d0074a8:	206e6961 	addi	t6,v1,26977
9d0074ac:	73206f74 	0x73206f74
9d0074b0:	20706f74 	addi	s0,v1,28532
9d0074b4:	20656874 	addi	a1,v1,26740
9d0074b8:	656d6974 	0x656d6974
9d0074bc:	0a0d2e72 	j	9834b9c8 <_bmxdudba_address+0x9833b9c8>
9d0074c0:	0c000000 	jal	90000000 <_bmxdudba_address+0x8fff0000>
9d0074c4:	73206625 	0x73206625
9d0074c8:	6e6f6365 	0x6e6f6365
9d0074cc:	65207364 	0x65207364
9d0074d0:	7370616c 	0x7370616c
9d0074d4:	0d2e6465 	jal	94b99194 <_bmxdudba_address+0x94b89194>
9d0074d8:	0000000a 	movz	zero,zero,zero
9d0074dc:	656d6954 	0x656d6954
9d0074e0:	61682072 	0x61682072
9d0074e4:	65622073 	0x65622073
9d0074e8:	72206e65 	0x72206e65
9d0074ec:	74657365 	jalx	9195cd94 <_bmxdudba_address+0x9194cd94>
9d0074f0:	6f6e202c 	0x6f6e202c
9d0074f4:	73692077 	0x73692077
9d0074f8:	63657320 	0x63657320
9d0074fc:	20646e6f 	addi	a0,v1,28271
9d007500:	0a0d6925 	j	9835a494 <_bmxdudba_address+0x9834a494>
9d007504:	00000000 	nop
9d007508:	20776f4e 	addi	s7,v1,28494
9d00750c:	73207369 	0x73207369
9d007510:	6e6f6365 	0x6e6f6365
9d007514:	69252064 	0x69252064
9d007518:	00000a0d 	break	0x0,0x28
	...
9d007524:	4176e360 	0x4176e360
9d007528:	00000000 	nop
9d00752c:	41f00000 	0x41f00000
9d007530:	00464e49 	0x464e49
9d007534:	00666e69 	0x666e69
9d007538:	004e414e 	0x4e414e
9d00753c:	006e616e 	0x6e616e
9d007540:	00000000 	nop
9d007544:	3ff00000 	0x3ff00000
9d007548:	00000000 	nop
9d00754c:	40240000 	0x40240000
9d007550:	00000000 	nop
9d007554:	43500000 	c0	0x1500000
9d007558:	00000000 	nop
9d00755c:	40140000 	mfc0	s4,c0_index
9d007560:	6c696e28 	0x6c696e28
9d007564:	00000029 	0x29
9d007568:	00000025 	move	zero,zero
	...
9d007574:	43e00000 	c0	0x1e00000
9d007578:	00000000 	nop
9d00757c:	c3e00000 	ll	zero,0(ra)
9d007580:	f0000000 	0xf0000000
9d007584:	341fffff 	li	ra,0xffff
9d007588:	00000000 	nop
9d00758c:	07f00000 	bltzal	ra,9d007590 <__vector_dispatch_43+0xe30>
9d007590:	00000000 	nop
9d007594:	7fe00000 	ext	zero,ra,0x0,0x1
9d007598:	00000000 	nop
9d00759c:	03600000 	0x3600000
9d0075a0:	00000000 	nop
9d0075a4:	41f00000 	0x41f00000

Disassembly of section ._debug_exception:

bfc00480 <__DbgExecReturn>:
bfc00480:	409bf800 	mtc0	k1,c0_desave
bfc00484:	000000c0 	ehb
bfc00488:	3c1b9d01 	lui	k1,0x9d01
bfc0048c:	277bb698 	addiu	k1,k1,-18792
bfc00490:	13600002 	beqz	k1,bfc0049c <__DbgExecReturn+0x1c>
bfc00494:	00000000 	nop
bfc00498:	409bc000 	mtc0	k1,c0_depc
bfc0049c:	401bf800 	mfc0	k1,c0_desave
bfc004a0:	000000c0 	ehb
bfc004a4:	4200001f 	deret
bfc004a8:	00000000 	nop

Disassembly of section .text.__fmt_fp:

9d0075a8 <__fmt_fp>:
9d0075a8:	27bdff78 	addiu	sp,sp,-136
9d0075ac:	afa70094 	sw	a3,148(sp)
9d0075b0:	8ca20000 	lw	v0,0(a1)
9d0075b4:	afb3006c 	sw	s3,108(sp)
9d0075b8:	8cd30004 	lw	s3,4(a2)
9d0075bc:	afa2001c 	sw	v0,28(sp)
9d0075c0:	8ca20008 	lw	v0,8(a1)
9d0075c4:	afb10064 	sw	s1,100(sp)
9d0075c8:	afb00060 	sw	s0,96(sp)
9d0075cc:	afa20020 	sw	v0,32(sp)
9d0075d0:	8ca20010 	lw	v0,16(a1)
9d0075d4:	afa40088 	sw	a0,136(sp)
9d0075d8:	afa5008c 	sw	a1,140(sp)
9d0075dc:	afa20034 	sw	v0,52(sp)
9d0075e0:	8cc20000 	lw	v0,0(a2)
9d0075e4:	8cb10004 	lw	s1,4(a1)
9d0075e8:	8cb0000c 	lw	s0,12(a1)
9d0075ec:	afa20018 	sw	v0,24(sp)
9d0075f0:	8fa30018 	lw	v1,24(sp)
9d0075f4:	00003025 	move	a2,zero
9d0075f8:	00003825 	move	a3,zero
9d0075fc:	00602025 	move	a0,v1
9d007600:	02602825 	move	a1,s3
9d007604:	afbf0084 	sw	ra,132(sp)
9d007608:	afbe0080 	sw	s8,128(sp)
9d00760c:	afb7007c 	sw	s7,124(sp)
9d007610:	afb60078 	sw	s6,120(sp)
9d007614:	afb50074 	sw	s5,116(sp)
9d007618:	afb40070 	sw	s4,112(sp)
9d00761c:	0f402a34 	jal	9d00a8d0 <dpcmplt>
9d007620:	afb20068 	sw	s2,104(sp)
9d007624:	0440000d 	bltz	v0,9d00765c <__fmt_fp+0xb4>
9d007628:	3c028000 	lui	v0,0x8000
9d00762c:	8fa2001c 	lw	v0,28(sp)
9d007630:	30420004 	andi	v0,v0,0x4
9d007634:	14400037 	bnez	v0,9d007714 <__fmt_fp+0x16c>
9d007638:	8fb20020 	lw	s2,32(sp)
9d00763c:	8fa2001c 	lw	v0,28(sp)
9d007640:	30420008 	andi	v0,v0,0x8
9d007644:	1040000c 	beqz	v0,9d007678 <__fmt_fp+0xd0>
9d007648:	afa20024 	sw	v0,36(sp)
9d00764c:	24020020 	li	v0,32
9d007650:	a2020000 	sb	v0,0(s0)
9d007654:	10000006 	b	9d007670 <__fmt_fp+0xc8>
9d007658:	2652ffff 	addiu	s2,s2,-1
9d00765c:	00539826 	xor	s3,v0,s3
9d007660:	2402002d 	li	v0,45
9d007664:	a2020000 	sb	v0,0(s0)
9d007668:	8fa20020 	lw	v0,32(sp)
9d00766c:	2452ffff 	addiu	s2,v0,-1
9d007670:	24020001 	li	v0,1
9d007674:	afa20024 	sw	v0,36(sp)
9d007678:	8fa30024 	lw	v1,36(sp)
9d00767c:	02031821 	addu	v1,s0,v1
9d007680:	afa3002c 	sw	v1,44(sp)
9d007684:	8fa30018 	lw	v1,24(sp)
9d007688:	14600026 	bnez	v1,9d007724 <__fmt_fp+0x17c>
9d00768c:	7e62f000 	ext	v0,s3,0x0,0x1f
9d007690:	3c037ff0 	lui	v1,0x7ff0
9d007694:	14430024 	bne	v0,v1,9d007728 <__fmt_fp+0x180>
9d007698:	3c047ff0 	lui	a0,0x7ff0
9d00769c:	8fa20094 	lw	v0,148(sp)
9d0076a0:	2442ffbf 	addiu	v0,v0,-65
9d0076a4:	2c42001a 	sltiu	v0,v0,26
9d0076a8:	1040001c 	beqz	v0,9d00771c <__fmt_fp+0x174>
9d0076ac:	3c059d00 	lui	a1,0x9d00
9d0076b0:	3c059d00 	lui	a1,0x9d00
9d0076b4:	24a57530 	addiu	a1,a1,30000
9d0076b8:	0f402e2e 	jal	9d00b8b8 <strcpy>
9d0076bc:	8fa4002c 	lw	a0,44(sp)
9d0076c0:	0f402e03 	jal	9d00b80c <strlen>
9d0076c4:	02002025 	move	a0,s0
9d0076c8:	8fa3001c 	lw	v1,28(sp)
9d0076cc:	8fa70020 	lw	a3,32(sp)
9d0076d0:	8fa40088 	lw	a0,136(sp)
9d0076d4:	afa30010 	sw	v1,16(sp)
9d0076d8:	02002825 	move	a1,s0
9d0076dc:	0f402ac1 	jal	9d00ab04 <__pad>
9d0076e0:	00403025 	move	a2,v0
9d0076e4:	8fbf0084 	lw	ra,132(sp)
9d0076e8:	8fbe0080 	lw	s8,128(sp)
9d0076ec:	8fb7007c 	lw	s7,124(sp)
9d0076f0:	8fb60078 	lw	s6,120(sp)
9d0076f4:	8fb50074 	lw	s5,116(sp)
9d0076f8:	8fb40070 	lw	s4,112(sp)
9d0076fc:	8fb3006c 	lw	s3,108(sp)
9d007700:	8fb20068 	lw	s2,104(sp)
9d007704:	8fb10064 	lw	s1,100(sp)
9d007708:	8fb00060 	lw	s0,96(sp)
9d00770c:	03e00008 	jr	ra
9d007710:	27bd0088 	addiu	sp,sp,136
9d007714:	1000ffd3 	b	9d007664 <__fmt_fp+0xbc>
9d007718:	2402002b 	li	v0,43
9d00771c:	1000ffe6 	b	9d0076b8 <__fmt_fp+0x110>
9d007720:	24a57534 	addiu	a1,a1,30004
9d007724:	3c047ff0 	lui	a0,0x7ff0
9d007728:	24830001 	addiu	v1,a0,1
9d00772c:	0043182b 	sltu	v1,v0,v1
9d007730:	50600005 	beqzl	v1,9d007748 <__fmt_fp+0x1a0>
9d007734:	8fa20094 	lw	v0,148(sp)
9d007738:	1444000c 	bne	v0,a0,9d00776c <__fmt_fp+0x1c4>
9d00773c:	8fa20018 	lw	v0,24(sp)
9d007740:	1040000a 	beqz	v0,9d00776c <__fmt_fp+0x1c4>
9d007744:	8fa20094 	lw	v0,148(sp)
9d007748:	2442ffbf 	addiu	v0,v0,-65
9d00774c:	2c42001a 	sltiu	v0,v0,26
9d007750:	50400004 	beqzl	v0,9d007764 <__fmt_fp+0x1bc>
9d007754:	3c059d00 	lui	a1,0x9d00
9d007758:	3c059d00 	lui	a1,0x9d00
9d00775c:	1000ffd6 	b	9d0076b8 <__fmt_fp+0x110>
9d007760:	24a57538 	addiu	a1,a1,30008
9d007764:	1000ffd4 	b	9d0076b8 <__fmt_fp+0x110>
9d007768:	24a5753c 	addiu	a1,a1,30012
9d00776c:	8fa30018 	lw	v1,24(sp)
9d007770:	00003025 	move	a2,zero
9d007774:	00003825 	move	a3,zero
9d007778:	00602025 	move	a0,v1
9d00777c:	0f4029e9 	jal	9d00a7a4 <__eqdf2>
9d007780:	02602825 	move	a1,s3
9d007784:	3c179d00 	lui	s7,0x9d00
9d007788:	3c039d00 	lui	v1,0x9d00
9d00778c:	afa30030 	sw	v1,48(sp)
9d007790:	8ef57540 	lw	s5,30016(s7)
9d007794:	8ef67544 	lw	s6,30020(s7)
9d007798:	14400013 	bnez	v0,9d0077e8 <__fmt_fp+0x240>
9d00779c:	0000a025 	move	s4,zero
9d0077a0:	0f402e4c 	jal	9d00b930 <tolower>
9d0077a4:	8fa40094 	lw	a0,148(sp)
9d0077a8:	7c021420 	seb	v0,v0
9d0077ac:	afa20028 	sw	v0,40(sp)
9d0077b0:	8fa30028 	lw	v1,40(sp)
9d0077b4:	062001a5 	bltz	s1,9d007e4c <__fmt_fp+0x8a4>
9d0077b8:	24020067 	li	v0,103
9d0077bc:	14620057 	bne	v1,v0,9d00791c <__fmt_fp+0x374>
9d0077c0:	8fa90028 	lw	t1,40(sp)
9d0077c4:	52200001 	beqzl	s1,9d0077cc <__fmt_fp+0x224>
9d0077c8:	24110001 	li	s1,1
9d0077cc:	2a82fffc 	slti	v0,s4,-4
9d0077d0:	14400003 	bnez	v0,9d0077e0 <__fmt_fp+0x238>
9d0077d4:	0291102a 	slt	v0,s4,s1
9d0077d8:	14400196 	bnez	v0,9d007e34 <__fmt_fp+0x88c>
9d0077dc:	00000000 	nop
9d0077e0:	1000005a 	b	9d00794c <__fmt_fp+0x3a4>
9d0077e4:	24090065 	li	t1,101
9d0077e8:	3c029d00 	lui	v0,0x9d00
9d0077ec:	8c4a7548 	lw	t2,30024(v0)
9d0077f0:	8c4b754c 	lw	t3,30028(v0)
9d0077f4:	01403025 	move	a2,t2
9d0077f8:	01603825 	move	a3,t3
9d0077fc:	02a02025 	move	a0,s5
9d007800:	02c02825 	move	a1,s6
9d007804:	afaa0038 	sw	t2,56(sp)
9d007808:	0f4026eb 	jal	9d009bac <__muldf3>
9d00780c:	afab003c 	sw	t3,60(sp)
9d007810:	8fa40018 	lw	a0,24(sp)
9d007814:	02603825 	move	a3,s3
9d007818:	00602825 	move	a1,v1
9d00781c:	00803025 	move	a2,a0
9d007820:	00402025 	move	a0,v0
9d007824:	0040f025 	move	s8,v0
9d007828:	0f4029e9 	jal	9d00a7a4 <__eqdf2>
9d00782c:	afa30028 	sw	v1,40(sp)
9d007830:	1c40002d 	bgtz	v0,9d0078e8 <__fmt_fp+0x340>
9d007834:	8fa30028 	lw	v1,40(sp)
9d007838:	8faa0038 	lw	t2,56(sp)
9d00783c:	8fab003c 	lw	t3,60(sp)
9d007840:	26940001 	addiu	s4,s4,1
9d007844:	03c0a825 	move	s5,s8
9d007848:	1000ffea 	b	9d0077f4 <__fmt_fp+0x24c>
9d00784c:	0060b025 	move	s6,v1
9d007850:	10400013 	beqz	v0,9d0078a0 <__fmt_fp+0x2f8>
9d007854:	8fa20028 	lw	v0,40(sp)
9d007858:	14400011 	bnez	v0,9d0078a0 <__fmt_fp+0x2f8>
9d00785c:	8fa30018 	lw	v1,24(sp)
9d007860:	8fa60038 	lw	a2,56(sp)
9d007864:	02602825 	move	a1,s3
9d007868:	03c03825 	move	a3,s8
9d00786c:	0f4026eb 	jal	9d009bac <__muldf3>
9d007870:	00602025 	move	a0,v1
9d007874:	8fa60048 	lw	a2,72(sp)
9d007878:	8fa70050 	lw	a3,80(sp)
9d00787c:	02a02025 	move	a0,s5
9d007880:	02c02825 	move	a1,s6
9d007884:	afa20018 	sw	v0,24(sp)
9d007888:	0f4026eb 	jal	9d009bac <__muldf3>
9d00788c:	00609825 	move	s3,v1
9d007890:	0040a825 	move	s5,v0
9d007894:	24020001 	li	v0,1
9d007898:	0060b025 	move	s6,v1
9d00789c:	afa20028 	sw	v0,40(sp)
9d0078a0:	8fa60040 	lw	a2,64(sp)
9d0078a4:	8fa70044 	lw	a3,68(sp)
9d0078a8:	02a02025 	move	a0,s5
9d0078ac:	0f4022d4 	jal	9d008b50 <__divdf3>
9d0078b0:	02c02825 	move	a1,s6
9d0078b4:	0040a825 	move	s5,v0
9d0078b8:	0060b025 	move	s6,v1
9d0078bc:	2694ffff 	addiu	s4,s4,-1
9d0078c0:	8fa30018 	lw	v1,24(sp)
9d0078c4:	02a03025 	move	a2,s5
9d0078c8:	02c03825 	move	a3,s6
9d0078cc:	00602025 	move	a0,v1
9d0078d0:	0f402a34 	jal	9d00a8d0 <dpcmplt>
9d0078d4:	02602825 	move	a1,s3
9d0078d8:	0442ffdd 	bltzl	v0,9d007850 <__fmt_fp+0x2a8>
9d0078dc:	2a82fed4 	slti	v0,s4,-300
9d0078e0:	1000ffaf 	b	9d0077a0 <__fmt_fp+0x1f8>
9d0078e4:	00000000 	nop
9d0078e8:	3c029d00 	lui	v0,0x9d00
9d0078ec:	8c437550 	lw	v1,30032(v0)
9d0078f0:	8c5e7554 	lw	s8,30036(v0)
9d0078f4:	8fa20030 	lw	v0,48(sp)
9d0078f8:	afa30038 	sw	v1,56(sp)
9d0078fc:	afa30048 	sw	v1,72(sp)
9d007900:	8c43754c 	lw	v1,30028(v0)
9d007904:	8c427548 	lw	v0,30024(v0)
9d007908:	afa00028 	sw	zero,40(sp)
9d00790c:	afbe0050 	sw	s8,80(sp)
9d007910:	afa20040 	sw	v0,64(sp)
9d007914:	1000ffea 	b	9d0078c0 <__fmt_fp+0x318>
9d007918:	afa30044 	sw	v1,68(sp)
9d00791c:	24020066 	li	v0,102
9d007920:	1522000a 	bne	t1,v0,9d00794c <__fmt_fp+0x3a4>
9d007924:	26310001 	addiu	s1,s1,1
9d007928:	06810004 	bgez	s4,9d00793c <__fmt_fp+0x394>
9d00792c:	8fa30028 	lw	v1,40(sp)
9d007930:	8ef57540 	lw	s5,30016(s7)
9d007934:	8ef67544 	lw	s6,30020(s7)
9d007938:	0000a025 	move	s4,zero
9d00793c:	24020067 	li	v0,103
9d007940:	10620002 	beq	v1,v0,9d00794c <__fmt_fp+0x3a4>
9d007944:	24090066 	li	t1,102
9d007948:	02348821 	addu	s1,s1,s4
9d00794c:	8fac0018 	lw	t4,24(sp)
9d007950:	02a05825 	move	t3,s5
9d007954:	02c05025 	move	t2,s6
9d007958:	0260b825 	move	s7,s3
9d00795c:	00007025 	move	t6,zero
9d007960:	01603025 	move	a2,t3
9d007964:	01403825 	move	a3,t2
9d007968:	01802025 	move	a0,t4
9d00796c:	02e02825 	move	a1,s7
9d007970:	afa9005c 	sw	t1,92(sp)
9d007974:	afae0058 	sw	t6,88(sp)
9d007978:	afab0050 	sw	t3,80(sp)
9d00797c:	afaa0054 	sw	t2,84(sp)
9d007980:	0f4022d4 	jal	9d008b50 <__divdf3>
9d007984:	afac0048 	sw	t4,72(sp)
9d007988:	00402025 	move	a0,v0
9d00798c:	0f402a7f 	jal	9d00a9fc <dpfloor>
9d007990:	00602825 	move	a1,v1
9d007994:	00602825 	move	a1,v1
9d007998:	00402025 	move	a0,v0
9d00799c:	afa30044 	sw	v1,68(sp)
9d0079a0:	0f402c42 	jal	9d00b108 <__fixdfsi>
9d0079a4:	afa20040 	sw	v0,64(sp)
9d0079a8:	8fac0040 	lw	t4,64(sp)
9d0079ac:	8faf0048 	lw	t7,72(sp)
9d0079b0:	8faa0054 	lw	t2,84(sp)
9d0079b4:	8fab0050 	lw	t3,80(sp)
9d0079b8:	8fad0044 	lw	t5,68(sp)
9d0079bc:	02e0f025 	move	s8,s7
9d0079c0:	3c178000 	lui	s7,0x8000
9d0079c4:	02fe2026 	xor	a0,s7,s8
9d0079c8:	01603025 	move	a2,t3
9d0079cc:	01403825 	move	a3,t2
9d0079d0:	01a02825 	move	a1,t5
9d0079d4:	afaf0010 	sw	t7,16(sp)
9d0079d8:	afa40014 	sw	a0,20(sp)
9d0079dc:	01802025 	move	a0,t4
9d0079e0:	afaa0048 	sw	t2,72(sp)
9d0079e4:	0f401f97 	jal	9d007e5c <fma>
9d0079e8:	afa20038 	sw	v0,56(sp)
9d0079ec:	afa20040 	sw	v0,64(sp)
9d0079f0:	0040f025 	move	s8,v0
9d0079f4:	8fa20030 	lw	v0,48(sp)
9d0079f8:	8fab0050 	lw	t3,80(sp)
9d0079fc:	8faa0048 	lw	t2,72(sp)
9d007a00:	8c467548 	lw	a2,30024(v0)
9d007a04:	8c47754c 	lw	a3,30028(v0)
9d007a08:	01602025 	move	a0,t3
9d007a0c:	01402825 	move	a1,t2
9d007a10:	0f4022d4 	jal	9d008b50 <__divdf3>
9d007a14:	02e3b826 	xor	s7,s7,v1
9d007a18:	8fae0058 	lw	t6,88(sp)
9d007a1c:	00405825 	move	t3,v0
9d007a20:	00605025 	move	t2,v1
9d007a24:	25ce0001 	addiu	t6,t6,1
9d007a28:	8fac0040 	lw	t4,64(sp)
9d007a2c:	162effcc 	bne	s1,t6,9d007960 <__fmt_fp+0x3b8>
9d007a30:	8fa9005c 	lw	t1,92(sp)
9d007a34:	3c029d00 	lui	v0,0x9d00
9d007a38:	8c467558 	lw	a2,30040(v0)
9d007a3c:	8c47755c 	lw	a3,30044(v0)
9d007a40:	01602025 	move	a0,t3
9d007a44:	00602825 	move	a1,v1
9d007a48:	0f4026eb 	jal	9d009bac <__muldf3>
9d007a4c:	afa90048 	sw	t1,72(sp)
9d007a50:	00403025 	move	a2,v0
9d007a54:	00603825 	move	a3,v1
9d007a58:	03c02025 	move	a0,s8
9d007a5c:	02e02825 	move	a1,s7
9d007a60:	afa20040 	sw	v0,64(sp)
9d007a64:	0f402a34 	jal	9d00a8d0 <dpcmplt>
9d007a68:	afa30044 	sw	v1,68(sp)
9d007a6c:	04400010 	bltz	v0,9d007ab0 <__fmt_fp+0x508>
9d007a70:	8fa90048 	lw	t1,72(sp)
9d007a74:	8faa0040 	lw	t2,64(sp)
9d007a78:	8fab0044 	lw	t3,68(sp)
9d007a7c:	03c02025 	move	a0,s8
9d007a80:	01403025 	move	a2,t2
9d007a84:	01603825 	move	a3,t3
9d007a88:	0f4029e9 	jal	9d00a7a4 <__eqdf2>
9d007a8c:	02e02825 	move	a1,s7
9d007a90:	8faa0040 	lw	t2,64(sp)
9d007a94:	8fab0044 	lw	t3,68(sp)
9d007a98:	14400007 	bnez	v0,9d007ab8 <__fmt_fp+0x510>
9d007a9c:	8fa90048 	lw	t1,72(sp)
9d007aa0:	8fa20038 	lw	v0,56(sp)
9d007aa4:	30420001 	andi	v0,v0,0x1
9d007aa8:	14400004 	bnez	v0,9d007abc <__fmt_fp+0x514>
9d007aac:	8fa30018 	lw	v1,24(sp)
9d007ab0:	00005025 	move	t2,zero
9d007ab4:	00005825 	move	t3,zero
9d007ab8:	8fa30018 	lw	v1,24(sp)
9d007abc:	01403025 	move	a2,t2
9d007ac0:	01603825 	move	a3,t3
9d007ac4:	02602825 	move	a1,s3
9d007ac8:	00602025 	move	a0,v1
9d007acc:	0f402404 	jal	9d009010 <__adddf3>
9d007ad0:	afa90048 	sw	t1,72(sp)
9d007ad4:	0040f025 	move	s8,v0
9d007ad8:	afa20018 	sw	v0,24(sp)
9d007adc:	8fa20030 	lw	v0,48(sp)
9d007ae0:	02a02025 	move	a0,s5
9d007ae4:	02c02825 	move	a1,s6
9d007ae8:	8c467548 	lw	a2,30024(v0)
9d007aec:	8c47754c 	lw	a3,30028(v0)
9d007af0:	0060b825 	move	s7,v1
9d007af4:	0f4026eb 	jal	9d009bac <__muldf3>
9d007af8:	afa30038 	sw	v1,56(sp)
9d007afc:	00402025 	move	a0,v0
9d007b00:	03c03025 	move	a2,s8
9d007b04:	02e03825 	move	a3,s7
9d007b08:	00602825 	move	a1,v1
9d007b0c:	00409825 	move	s3,v0
9d007b10:	0f402a34 	jal	9d00a8d0 <dpcmplt>
9d007b14:	afa30040 	sw	v1,64(sp)
9d007b18:	1c400054 	bgtz	v0,9d007c6c <__fmt_fp+0x6c4>
9d007b1c:	8fa90048 	lw	t1,72(sp)
9d007b20:	24020066 	li	v0,102
9d007b24:	26940001 	addiu	s4,s4,1
9d007b28:	15220052 	bne	t1,v0,9d007c74 <__fmt_fp+0x6cc>
9d007b2c:	8fab0040 	lw	t3,64(sp)
9d007b30:	26310001 	addiu	s1,s1,1
9d007b34:	0280b025 	move	s6,s4
9d007b38:	8fb50024 	lw	s5,36(sp)
9d007b3c:	02d11023 	subu	v0,s6,s1
9d007b40:	afa20040 	sw	v0,64(sp)
9d007b44:	0000f025 	move	s8,zero
9d007b48:	00008825 	move	s1,zero
9d007b4c:	8fa20040 	lw	v0,64(sp)
9d007b50:	10560007 	beq	v0,s6,9d007b70 <__fmt_fp+0x5c8>
9d007b54:	02a0b825 	move	s7,s5
9d007b58:	8fa2008c 	lw	v0,140(sp)
9d007b5c:	8c420010 	lw	v0,16(v0)
9d007b60:	2442fffb 	addiu	v0,v0,-5
9d007b64:	02a2102b 	sltu	v0,s5,v0
9d007b68:	14400047 	bnez	v0,9d007c88 <__fmt_fp+0x6e0>
9d007b6c:	8fa30018 	lw	v1,24(sp)
9d007b70:	16200007 	bnez	s1,9d007b90 <__fmt_fp+0x5e8>
9d007b74:	8fa2001c 	lw	v0,28(sp)
9d007b78:	30420010 	andi	v0,v0,0x10
9d007b7c:	10400004 	beqz	v0,9d007b90 <__fmt_fp+0x5e8>
9d007b80:	0217b821 	addu	s7,s0,s7
9d007b84:	2402002e 	li	v0,46
9d007b88:	26b50001 	addiu	s5,s5,1
9d007b8c:	a2e20000 	sb	v0,0(s7)
9d007b90:	02152021 	addu	a0,s0,s5
9d007b94:	24020065 	li	v0,101
9d007b98:	15220022 	bne	t1,v0,9d007c24 <__fmt_fp+0x67c>
9d007b9c:	a0800000 	sb	zero,0(a0)
9d007ba0:	06810003 	bgez	s4,9d007bb0 <__fmt_fp+0x608>
9d007ba4:	00001825 	move	v1,zero
9d007ba8:	0014a023 	negu	s4,s4
9d007bac:	24030001 	li	v1,1
9d007bb0:	8fa20034 	lw	v0,52(sp)
9d007bb4:	264afffe 	addiu	t2,s2,-2
9d007bb8:	2407000a 	li	a3,10
9d007bbc:	2442ffff 	addiu	v0,v0,-1
9d007bc0:	02022821 	addu	a1,s0,v0
9d007bc4:	a0a00000 	sb	zero,0(a1)
9d007bc8:	24050002 	li	a1,2
9d007bcc:	16800088 	bnez	s4,9d007df0 <__fmt_fp+0x848>
9d007bd0:	01459021 	addu	s2,t2,a1
9d007bd4:	1ca00086 	bgtz	a1,9d007df0 <__fmt_fp+0x848>
9d007bd8:	2406002d 	li	a2,45
9d007bdc:	2405002b 	li	a1,43
9d007be0:	00c3280b 	movn	a1,a2,v1
9d007be4:	00a01825 	move	v1,a1
9d007be8:	02022821 	addu	a1,s0,v0
9d007bec:	a0a3ffff 	sb	v1,-1(a1)
9d007bf0:	8fa30094 	lw	v1,148(sp)
9d007bf4:	24050045 	li	a1,69
9d007bf8:	2442fffe 	addiu	v0,v0,-2
9d007bfc:	2463ffbf 	addiu	v1,v1,-65
9d007c00:	2c63001a 	sltiu	v1,v1,26
9d007c04:	00a3480b 	movn	t1,a1,v1
9d007c08:	02a2a82a 	slt	s5,s5,v0
9d007c0c:	02022821 	addu	a1,s0,v0
9d007c10:	a0a90000 	sb	t1,0(a1)
9d007c14:	12a00003 	beqz	s5,9d007c24 <__fmt_fp+0x67c>
9d007c18:	2652fffe 	addiu	s2,s2,-2
9d007c1c:	0f402e2e 	jal	9d00b8b8 <strcpy>
9d007c20:	00000000 	nop
9d007c24:	8fa2001c 	lw	v0,28(sp)
9d007c28:	24030002 	li	v1,2
9d007c2c:	30420003 	andi	v0,v0,0x3
9d007c30:	1443fea3 	bne	v0,v1,9d0076c0 <__fmt_fp+0x118>
9d007c34:	00000000 	nop
9d007c38:	1a40fea1 	blez	s2,9d0076c0 <__fmt_fp+0x118>
9d007c3c:	00000000 	nop
9d007c40:	0f402e03 	jal	9d00b80c <strlen>
9d007c44:	02002025 	move	a0,s0
9d007c48:	8fa30024 	lw	v1,36(sp)
9d007c4c:	0043182a 	slt	v1,v0,v1
9d007c50:	10600071 	beqz	v1,9d007e18 <__fmt_fp+0x870>
9d007c54:	02403025 	move	a2,s2
9d007c58:	8fa4002c 	lw	a0,44(sp)
9d007c5c:	0f402e24 	jal	9d00b890 <memset>
9d007c60:	24050030 	li	a1,48
9d007c64:	1000fe96 	b	9d0076c0 <__fmt_fp+0x118>
9d007c68:	afa00020 	sw	zero,32(sp)
9d007c6c:	02a09825 	move	s3,s5
9d007c70:	02c05825 	move	t3,s6
9d007c74:	39360065 	xori	s6,t1,0x65
9d007c78:	02801025 	move	v0,s4
9d007c7c:	0016100a 	movz	v0,zero,s6
9d007c80:	1000ffad 	b	9d007b38 <__fmt_fp+0x590>
9d007c84:	0040b025 	move	s6,v0
9d007c88:	8fa20038 	lw	v0,56(sp)
9d007c8c:	01603825 	move	a3,t3
9d007c90:	02603025 	move	a2,s3
9d007c94:	00602025 	move	a0,v1
9d007c98:	00402825 	move	a1,v0
9d007c9c:	afa90054 	sw	t1,84(sp)
9d007ca0:	0f4022d4 	jal	9d008b50 <__divdf3>
9d007ca4:	afab0050 	sw	t3,80(sp)
9d007ca8:	00402025 	move	a0,v0
9d007cac:	0f402a7f 	jal	9d00a9fc <dpfloor>
9d007cb0:	00602825 	move	a1,v1
9d007cb4:	00402025 	move	a0,v0
9d007cb8:	00602825 	move	a1,v1
9d007cbc:	afa3004c 	sw	v1,76(sp)
9d007cc0:	0f402c42 	jal	9d00b108 <__fixdfsi>
9d007cc4:	afa20048 	sw	v0,72(sp)
9d007cc8:	2844000a 	slti	a0,v0,10
9d007ccc:	24030009 	li	v1,9
9d007cd0:	0064100a 	movz	v0,v1,a0
9d007cd4:	8fa3001c 	lw	v1,28(sp)
9d007cd8:	8fae0048 	lw	t6,72(sp)
9d007cdc:	8faf004c 	lw	t7,76(sp)
9d007ce0:	30630010 	andi	v1,v1,0x10
9d007ce4:	00621825 	or	v1,v1,v0
9d007ce8:	8fab0050 	lw	t3,80(sp)
9d007cec:	1460000c 	bnez	v1,9d007d20 <__fmt_fp+0x778>
9d007cf0:	8fa90054 	lw	t1,84(sp)
9d007cf4:	8fa40028 	lw	a0,40(sp)
9d007cf8:	24030067 	li	v1,103
9d007cfc:	14830008 	bne	a0,v1,9d007d20 <__fmt_fp+0x778>
9d007d00:	00000000 	nop
9d007d04:	06c0001d 	bltz	s6,9d007d7c <__fmt_fp+0x7d4>
9d007d08:	27d70001 	addiu	s7,s8,1
9d007d0c:	02a01825 	move	v1,s5
9d007d10:	02152021 	addu	a0,s0,s5
9d007d14:	03c0b825 	move	s7,s8
9d007d18:	1000000e 	b	9d007d54 <__fmt_fp+0x7ac>
9d007d1c:	24050030 	li	a1,48
9d007d20:	1620fffb 	bnez	s1,9d007d10 <__fmt_fp+0x768>
9d007d24:	02a01825 	move	v1,s5
9d007d28:	06c3fffa 	bgezl	s6,9d007d14 <__fmt_fp+0x76c>
9d007d2c:	02152021 	addu	a0,s0,s5
9d007d30:	0217b821 	addu	s7,s0,s7
9d007d34:	2403002e 	li	v1,46
9d007d38:	26b50001 	addiu	s5,s5,1
9d007d3c:	2652ffff 	addiu	s2,s2,-1
9d007d40:	a2e30000 	sb	v1,0(s7)
9d007d44:	1000fff1 	b	9d007d0c <__fmt_fp+0x764>
9d007d48:	24110001 	li	s1,1
9d007d4c:	26f7ffff 	addiu	s7,s7,-1
9d007d50:	24840001 	addiu	a0,a0,1
9d007d54:	56e0fffd 	bnezl	s7,9d007d4c <__fmt_fp+0x7a4>
9d007d58:	a0850000 	sb	a1,0(a0)
9d007d5c:	2652ffff 	addiu	s2,s2,-1
9d007d60:	26b50001 	addiu	s5,s5,1
9d007d64:	02031821 	addu	v1,s0,v1
9d007d68:	025e9023 	subu	s2,s2,s8
9d007d6c:	02bea821 	addu	s5,s5,s8
9d007d70:	24420030 	addiu	v0,v0,48
9d007d74:	007ef021 	addu	s8,v1,s8
9d007d78:	a3c20000 	sb	v0,0(s8)
9d007d7c:	8fa20038 	lw	v0,56(sp)
9d007d80:	8fa50018 	lw	a1,24(sp)
9d007d84:	3c1e8000 	lui	s8,0x8000
9d007d88:	03c22026 	xor	a0,s8,v0
9d007d8c:	02603025 	move	a2,s3
9d007d90:	01603825 	move	a3,t3
9d007d94:	afa50010 	sw	a1,16(sp)
9d007d98:	afa40014 	sw	a0,20(sp)
9d007d9c:	01e02825 	move	a1,t7
9d007da0:	01c02025 	move	a0,t6
9d007da4:	afa90050 	sw	t1,80(sp)
9d007da8:	0f401f97 	jal	9d007e5c <fma>
9d007dac:	afab0048 	sw	t3,72(sp)
9d007db0:	afa20018 	sw	v0,24(sp)
9d007db4:	03c31026 	xor	v0,s8,v1
9d007db8:	afa20038 	sw	v0,56(sp)
9d007dbc:	8fa20030 	lw	v0,48(sp)
9d007dc0:	8fab0048 	lw	t3,72(sp)
9d007dc4:	02602025 	move	a0,s3
9d007dc8:	8c467548 	lw	a2,30024(v0)
9d007dcc:	8c47754c 	lw	a3,30028(v0)
9d007dd0:	01602825 	move	a1,t3
9d007dd4:	0f4022d4 	jal	9d008b50 <__divdf3>
9d007dd8:	26d6ffff 	addiu	s6,s6,-1
9d007ddc:	00409825 	move	s3,v0
9d007de0:	00605825 	move	t3,v1
9d007de4:	02e0f025 	move	s8,s7
9d007de8:	1000ff58 	b	9d007b4c <__fmt_fp+0x5a4>
9d007dec:	8fa90050 	lw	t1,80(sp)
9d007df0:	0287001a 	div	zero,s4,a3
9d007df4:	00e001f4 	teq	a3,zero,0x7
9d007df8:	2442ffff 	addiu	v0,v0,-1
9d007dfc:	02025821 	addu	t3,s0,v0
9d007e00:	24a5ffff 	addiu	a1,a1,-1
9d007e04:	00003010 	mfhi	a2
9d007e08:	24c60030 	addiu	a2,a2,48
9d007e0c:	a1660000 	sb	a2,0(t3)
9d007e10:	1000ff6e 	b	9d007bcc <__fmt_fp+0x624>
9d007e14:	0000a012 	mflo	s4
9d007e18:	02021821 	addu	v1,s0,v0
9d007e1c:	80640000 	lb	a0,0(v1)
9d007e20:	02421821 	addu	v1,s2,v0
9d007e24:	02031821 	addu	v1,s0,v1
9d007e28:	a0640000 	sb	a0,0(v1)
9d007e2c:	1000ff86 	b	9d007c48 <__fmt_fp+0x6a0>
9d007e30:	2442ffff 	addiu	v0,v0,-1
9d007e34:	0681fec1 	bgez	s4,9d00793c <__fmt_fp+0x394>
9d007e38:	8fa30028 	lw	v1,40(sp)
9d007e3c:	1000feb7 	b	9d00791c <__fmt_fp+0x374>
9d007e40:	24090066 	li	t1,102
9d007e44:	1000fe61 	b	9d0077cc <__fmt_fp+0x224>
9d007e48:	24110006 	li	s1,6
9d007e4c:	1062fe5f 	beq	v1,v0,9d0077cc <__fmt_fp+0x224>
9d007e50:	24110006 	li	s1,6
9d007e54:	1000feb1 	b	9d00791c <__fmt_fp+0x374>
9d007e58:	00604825 	move	t1,v1

Disassembly of section .text.fma:

9d007e5c <fma>:
9d007e5c:	27bdff78 	addiu	sp,sp,-136
9d007e60:	afa40088 	sw	a0,136(sp)
9d007e64:	afa60090 	sw	a2,144(sp)
9d007e68:	afa70094 	sw	a3,148(sp)
9d007e6c:	00803025 	move	a2,a0
9d007e70:	00a03825 	move	a3,a1
9d007e74:	27a40030 	addiu	a0,sp,48
9d007e78:	afbf0084 	sw	ra,132(sp)
9d007e7c:	afa5008c 	sw	a1,140(sp)
9d007e80:	afbe0080 	sw	s8,128(sp)
9d007e84:	afb3006c 	sw	s3,108(sp)
9d007e88:	afb20068 	sw	s2,104(sp)
9d007e8c:	afb10064 	sw	s1,100(sp)
9d007e90:	8fb20098 	lw	s2,152(sp)
9d007e94:	8fb3009c 	lw	s3,156(sp)
9d007e98:	afb7007c 	sw	s7,124(sp)
9d007e9c:	afb60078 	sw	s6,120(sp)
9d007ea0:	afb50074 	sw	s5,116(sp)
9d007ea4:	afb40070 	sw	s4,112(sp)
9d007ea8:	0f402c18 	jal	9d00b060 <normalize>
9d007eac:	afb00060 	sw	s0,96(sp)
9d007eb0:	8fa60090 	lw	a2,144(sp)
9d007eb4:	8fa70094 	lw	a3,148(sp)
9d007eb8:	8fb10038 	lw	s1,56(sp)
9d007ebc:	0f402c18 	jal	9d00b060 <normalize>
9d007ec0:	27a40020 	addiu	a0,sp,32
9d007ec4:	02403025 	move	a2,s2
9d007ec8:	02603825 	move	a3,s3
9d007ecc:	27a40010 	addiu	a0,sp,16
9d007ed0:	0f402c18 	jal	9d00b060 <normalize>
9d007ed4:	8fbe0028 	lw	s8,40(sp)
9d007ed8:	2a2203cb 	slti	v0,s1,971
9d007edc:	10400003 	beqz	v0,9d007eec <fma+0x90>
9d007ee0:	2bc203cb 	slti	v0,s8,971
9d007ee4:	1440000e 	bnez	v0,9d007f20 <fma+0xc4>
9d007ee8:	8fb90018 	lw	t9,24(sp)
9d007eec:	8fa60090 	lw	a2,144(sp)
9d007ef0:	8fa70094 	lw	a3,148(sp)
9d007ef4:	8fa40088 	lw	a0,136(sp)
9d007ef8:	0f4026eb 	jal	9d009bac <__muldf3>
9d007efc:	8fa5008c 	lw	a1,140(sp)
9d007f00:	00403025 	move	a2,v0
9d007f04:	00603825 	move	a3,v1
9d007f08:	02402025 	move	a0,s2
9d007f0c:	0f402404 	jal	9d009010 <__adddf3>
9d007f10:	02602825 	move	a1,s3
9d007f14:	00409025 	move	s2,v0
9d007f18:	10000006 	b	9d007f34 <fma+0xd8>
9d007f1c:	00609825 	move	s3,v1
9d007f20:	2b2203cb 	slti	v0,t9,971
9d007f24:	14400011 	bnez	v0,9d007f6c <fma+0x110>
9d007f28:	240203cb 	li	v0,971
9d007f2c:	1722fff0 	bne	t9,v0,9d007ef0 <fma+0x94>
9d007f30:	8fa60090 	lw	a2,144(sp)
9d007f34:	8fbf0084 	lw	ra,132(sp)
9d007f38:	02401025 	move	v0,s2
9d007f3c:	02601825 	move	v1,s3
9d007f40:	8fbe0080 	lw	s8,128(sp)
9d007f44:	8fb7007c 	lw	s7,124(sp)
9d007f48:	8fb60078 	lw	s6,120(sp)
9d007f4c:	8fb50074 	lw	s5,116(sp)
9d007f50:	8fb40070 	lw	s4,112(sp)
9d007f54:	8fb3006c 	lw	s3,108(sp)
9d007f58:	8fb20068 	lw	s2,104(sp)
9d007f5c:	8fb10064 	lw	s1,100(sp)
9d007f60:	8fb00060 	lw	s0,96(sp)
9d007f64:	03e00008 	jr	ra
9d007f68:	27bd0088 	addiu	sp,sp,136
9d007f6c:	8fa20030 	lw	v0,48(sp)
9d007f70:	8faa0020 	lw	t2,32(sp)
9d007f74:	8fa40024 	lw	a0,36(sp)
9d007f78:	8fa60034 	lw	a2,52(sp)
9d007f7c:	004a0019 	multu	v0,t2
9d007f80:	03d1f021 	addu	s8,s8,s1
9d007f84:	033e8823 	subu	s1,t9,s8
9d007f88:	8fa70010 	lw	a3,16(sp)
9d007f8c:	8fb70014 	lw	s7,20(sp)
9d007f90:	00004012 	mflo	t0
9d007f94:	afa80040 	sw	t0,64(sp)
9d007f98:	8faf0040 	lw	t7,64(sp)
9d007f9c:	00004810 	mfhi	t1
9d007fa0:	afa90044 	sw	t1,68(sp)
9d007fa4:	00440019 	multu	v0,a0
9d007fa8:	00001012 	mflo	v0
9d007fac:	00001810 	mfhi	v1
9d007fb0:	00ca0019 	multu	a2,t2
9d007fb4:	00005012 	mflo	t2
9d007fb8:	004ac021 	addu	t8,v0,t2
9d007fbc:	0302402b 	sltu	t0,t8,v0
9d007fc0:	00005810 	mfhi	t3
9d007fc4:	8fa20044 	lw	v0,68(sp)
9d007fc8:	006b5821 	addu	t3,v1,t3
9d007fcc:	00c40019 	multu	a2,a0
9d007fd0:	010b4021 	addu	t0,t0,t3
9d007fd4:	0302c021 	addu	t8,t8,v0
9d007fd8:	0302302b 	sltu	a2,t8,v0
9d007fdc:	00002012 	mflo	a0
9d007fe0:	00884021 	addu	t0,a0,t0
9d007fe4:	01063021 	addu	a2,t0,a2
9d007fe8:	00002810 	mfhi	a1
9d007fec:	0104582b 	sltu	t3,t0,a0
9d007ff0:	01655821 	addu	t3,t3,a1
9d007ff4:	00c8182b 	sltu	v1,a2,t0
9d007ff8:	00c08025 	move	s0,a2
9d007ffc:	1a2000ab 	blez	s1,9d0082ac <fma+0x450>
9d008000:	006bb021 	addu	s6,v1,t3
9d008004:	2a220040 	slti	v0,s1,64
9d008008:	10400078 	beqz	v0,9d0081ec <fma+0x390>
9d00800c:	00e02025 	move	a0,a3
9d008010:	02e02825 	move	a1,s7
9d008014:	02203025 	move	a2,s1
9d008018:	afb80054 	sw	t8,84(sp)
9d00801c:	afaf0050 	sw	t7,80(sp)
9d008020:	0f402df4 	jal	9d00b7d0 <__ashldi3>
9d008024:	afa7004c 	sw	a3,76(sp)
9d008028:	8fa7004c 	lw	a3,76(sp)
9d00802c:	24060040 	li	a2,64
9d008030:	02e02825 	move	a1,s7
9d008034:	00e02025 	move	a0,a3
9d008038:	00d13023 	subu	a2,a2,s1
9d00803c:	afa20048 	sw	v0,72(sp)
9d008040:	0f402de5 	jal	9d00b794 <__lshrdi3>
9d008044:	afa30040 	sw	v1,64(sp)
9d008048:	8fb90040 	lw	t9,64(sp)
9d00804c:	8fa80048 	lw	t0,72(sp)
9d008050:	8faf0050 	lw	t7,80(sp)
9d008054:	8fb80054 	lw	t8,84(sp)
9d008058:	00403825 	move	a3,v0
9d00805c:	0060b825 	move	s7,v1
9d008060:	8fa2002c 	lw	v0,44(sp)
9d008064:	8fb1003c 	lw	s1,60(sp)
9d008068:	02228826 	xor	s1,s1,v0
9d00806c:	8fa2001c 	lw	v0,28(sp)
9d008070:	145100b5 	bne	v0,s1,9d008348 <fma+0x4ec>
9d008074:	010f5021 	addu	t2,t0,t7
9d008078:	0148902b 	sltu	s2,t2,t0
9d00807c:	0338c021 	addu	t8,t9,t8
9d008080:	0258a021 	addu	s4,s2,t8
9d008084:	0299102b 	sltu	v0,s4,t9
9d008088:	0140a825 	move	s5,t2
9d00808c:	14400006 	bnez	v0,9d0080a8 <fma+0x24c>
9d008090:	24040001 	li	a0,1
9d008094:	17340003 	bne	t9,s4,9d0080a4 <fma+0x248>
9d008098:	0148402b 	sltu	t0,t2,t0
9d00809c:	15000003 	bnez	t0,9d0080ac <fma+0x250>
9d0080a0:	00f06021 	addu	t4,a3,s0
9d0080a4:	00002025 	move	a0,zero
9d0080a8:	00f06021 	addu	t4,a3,s0
9d0080ac:	0187102b 	sltu	v0,t4,a3
9d0080b0:	02f61821 	addu	v1,s7,s6
9d0080b4:	008c6021 	addu	t4,a0,t4
9d0080b8:	00431021 	addu	v0,v0,v1
9d0080bc:	0184202b 	sltu	a0,t4,a0
9d0080c0:	00826821 	addu	t5,a0,v0
9d0080c4:	01802025 	move	a0,t4
9d0080c8:	01a02825 	move	a1,t5
9d0080cc:	afac0048 	sw	t4,72(sp)
9d0080d0:	0f402cff 	jal	9d00b3fc <a_clz_64>
9d0080d4:	afad0040 	sw	t5,64(sp)
9d0080d8:	2453ffff 	addiu	s3,v0,-1
9d0080dc:	24060040 	li	a2,64
9d0080e0:	00d33023 	subu	a2,a2,s3
9d0080e4:	02a02025 	move	a0,s5
9d0080e8:	0f402de5 	jal	9d00b794 <__lshrdi3>
9d0080ec:	02802825 	move	a1,s4
9d0080f0:	8fac0048 	lw	t4,72(sp)
9d0080f4:	8fad0040 	lw	t5,64(sp)
9d0080f8:	02603025 	move	a2,s3
9d0080fc:	01802025 	move	a0,t4
9d008100:	01a02825 	move	a1,t5
9d008104:	00408025 	move	s0,v0
9d008108:	0f402df4 	jal	9d00b7d0 <__ashldi3>
9d00810c:	00609025 	move	s2,v1
9d008110:	02603025 	move	a2,s3
9d008114:	02a02025 	move	a0,s5
9d008118:	02802825 	move	a1,s4
9d00811c:	02028025 	or	s0,s0,v0
9d008120:	0f402df4 	jal	9d00b7d0 <__ashldi3>
9d008124:	02439025 	or	s2,s2,v1
9d008128:	00431025 	or	v0,v0,v1
9d00812c:	0002102b 	sltu	v0,zero,v0
9d008130:	27de0040 	addiu	s8,s8,64
9d008134:	02028025 	or	s0,s0,v0
9d008138:	02002025 	move	a0,s0
9d00813c:	12200005 	beqz	s1,9d008154 <fma+0x2f8>
9d008140:	02402825 	move	a1,s2
9d008144:	00102023 	negu	a0,s0
9d008148:	0004102b 	sltu	v0,zero,a0
9d00814c:	00122823 	negu	a1,s2
9d008150:	00a22823 	subu	a1,a1,v0
9d008154:	0f402ce2 	jal	9d00b388 <__floatdidf>
9d008158:	03d3f023 	subu	s8,s8,s3
9d00815c:	0040b025 	move	s6,v0
9d008160:	2bc2fbc4 	slti	v0,s8,-1084
9d008164:	104000f8 	beqz	v0,9d008548 <fma+0x6ec>
9d008168:	0060b825 	move	s7,v1
9d00816c:	2402fbc3 	li	v0,-1085
9d008170:	17c200fb 	bne	s8,v0,9d008560 <fma+0x704>
9d008174:	00102580 	sll	a0,s0,0x16
9d008178:	122000b4 	beqz	s1,9d00844c <fma+0x5f0>
9d00817c:	3c029d00 	lui	v0,0x9d00
9d008180:	8c547578 	lw	s4,30072(v0)
9d008184:	8c55757c 	lw	s5,30076(v0)
9d008188:	02c03025 	move	a2,s6
9d00818c:	02e03825 	move	a3,s7
9d008190:	02802025 	move	a0,s4
9d008194:	0f4029e9 	jal	9d00a7a4 <__eqdf2>
9d008198:	02a02825 	move	a1,s5
9d00819c:	144000af 	bnez	v0,9d00845c <fma+0x600>
9d0081a0:	3c029d00 	lui	v0,0x9d00
9d0081a4:	8c467580 	lw	a2,30080(v0)
9d0081a8:	8c477584 	lw	a3,30084(v0)
9d0081ac:	02c02025 	move	a0,s6
9d0081b0:	0f4026eb 	jal	9d009bac <__muldf3>
9d0081b4:	02e02825 	move	a1,s7
9d0081b8:	00602825 	move	a1,v1
9d0081bc:	0f402b01 	jal	9d00ac04 <__truncdfsf2>
9d0081c0:	00402025 	move	a0,v0
9d0081c4:	0f402bed 	jal	9d00afb4 <__extendsfdf2>
9d0081c8:	00402025 	move	a0,v0
9d0081cc:	3c049d00 	lui	a0,0x9d00
9d0081d0:	8c867588 	lw	a2,30088(a0)
9d0081d4:	8c87758c 	lw	a3,30092(a0)
9d0081d8:	00602825 	move	a1,v1
9d0081dc:	0f4026eb 	jal	9d009bac <__muldf3>
9d0081e0:	00402025 	move	a0,v0
9d0081e4:	1000ff4c 	b	9d007f18 <fma+0xbc>
9d0081e8:	00409025 	move	s2,v0
9d0081ec:	2631ffc0 	addiu	s1,s1,-64
9d0081f0:	273effc0 	addiu	s8,t9,-64
9d0081f4:	00004025 	move	t0,zero
9d0081f8:	1220ff99 	beqz	s1,9d008060 <fma+0x204>
9d0081fc:	0000c825 	move	t9,zero
9d008200:	2a220040 	slti	v0,s1,64
9d008204:	10400043 	beqz	v0,9d008314 <fma+0x4b8>
9d008208:	8fa40040 	lw	a0,64(sp)
9d00820c:	240d0040 	li	t5,64
9d008210:	01b16823 	subu	t5,t5,s1
9d008214:	01a03025 	move	a2,t5
9d008218:	03002825 	move	a1,t8
9d00821c:	afb90058 	sw	t9,88(sp)
9d008220:	afa80054 	sw	t0,84(sp)
9d008224:	afa70050 	sw	a3,80(sp)
9d008228:	afad004c 	sw	t5,76(sp)
9d00822c:	0f402df4 	jal	9d00b7d0 <__ashldi3>
9d008230:	afb80048 	sw	t8,72(sp)
9d008234:	8fb80048 	lw	t8,72(sp)
9d008238:	8fa40040 	lw	a0,64(sp)
9d00823c:	00431025 	or	v0,v0,v1
9d008240:	03002825 	move	a1,t8
9d008244:	02203025 	move	a2,s1
9d008248:	0f402de5 	jal	9d00b794 <__lshrdi3>
9d00824c:	0002a82b 	sltu	s5,zero,v0
9d008250:	8fad004c 	lw	t5,76(sp)
9d008254:	02002025 	move	a0,s0
9d008258:	02c02825 	move	a1,s6
9d00825c:	01a03025 	move	a2,t5
9d008260:	0060a025 	move	s4,v1
9d008264:	0f402df4 	jal	9d00b7d0 <__ashldi3>
9d008268:	02a2a825 	or	s5,s5,v0
9d00826c:	02a27825 	or	t7,s5,v0
9d008270:	0283c025 	or	t8,s4,v1
9d008274:	02002025 	move	a0,s0
9d008278:	02c02825 	move	a1,s6
9d00827c:	02203025 	move	a2,s1
9d008280:	afaf0048 	sw	t7,72(sp)
9d008284:	0f402de5 	jal	9d00b794 <__lshrdi3>
9d008288:	afb80040 	sw	t8,64(sp)
9d00828c:	00408025 	move	s0,v0
9d008290:	0060b025 	move	s6,v1
9d008294:	8fb80040 	lw	t8,64(sp)
9d008298:	8faf0048 	lw	t7,72(sp)
9d00829c:	8fa70050 	lw	a3,80(sp)
9d0082a0:	8fa80054 	lw	t0,84(sp)
9d0082a4:	1000ff6e 	b	9d008060 <fma+0x204>
9d0082a8:	8fb90058 	lw	t9,88(sp)
9d0082ac:	03d98823 	subu	s1,s8,t9
9d0082b0:	1220001d 	beqz	s1,9d008328 <fma+0x4cc>
9d0082b4:	2a220040 	slti	v0,s1,64
9d0082b8:	10400020 	beqz	v0,9d00833c <fma+0x4e0>
9d0082bc:	24060040 	li	a2,64
9d0082c0:	00e02025 	move	a0,a3
9d0082c4:	02e02825 	move	a1,s7
9d0082c8:	00d13023 	subu	a2,a2,s1
9d0082cc:	afb8004c 	sw	t8,76(sp)
9d0082d0:	afaf0048 	sw	t7,72(sp)
9d0082d4:	0f402df4 	jal	9d00b7d0 <__ashldi3>
9d0082d8:	afa70040 	sw	a3,64(sp)
9d0082dc:	8fa70040 	lw	a3,64(sp)
9d0082e0:	00431025 	or	v0,v0,v1
9d0082e4:	02e02825 	move	a1,s7
9d0082e8:	00e02025 	move	a0,a3
9d0082ec:	02203025 	move	a2,s1
9d0082f0:	0f402de5 	jal	9d00b794 <__lshrdi3>
9d0082f4:	0002a02b 	sltu	s4,zero,v0
9d0082f8:	02824025 	or	t0,s4,v0
9d0082fc:	0060c825 	move	t9,v1
9d008300:	00003825 	move	a3,zero
9d008304:	0000b825 	move	s7,zero
9d008308:	8faf0048 	lw	t7,72(sp)
9d00830c:	1000ff54 	b	9d008060 <fma+0x204>
9d008310:	8fb8004c 	lw	t8,76(sp)
9d008314:	240f0001 	li	t7,1
9d008318:	0000c025 	move	t8,zero
9d00831c:	00008025 	move	s0,zero
9d008320:	1000ff4f 	b	9d008060 <fma+0x204>
9d008324:	0000b025 	move	s6,zero
9d008328:	00e04025 	move	t0,a3
9d00832c:	02e0c825 	move	t9,s7
9d008330:	00003825 	move	a3,zero
9d008334:	1000ff4a 	b	9d008060 <fma+0x204>
9d008338:	0000b825 	move	s7,zero
9d00833c:	24080001 	li	t0,1
9d008340:	1000fffb 	b	9d008330 <fma+0x4d4>
9d008344:	0000c825 	move	t9,zero
9d008348:	01e85023 	subu	t2,t7,t0
9d00834c:	01ea182b 	sltu	v1,t7,t2
9d008350:	03194823 	subu	t1,t8,t9
9d008354:	0123a023 	subu	s4,t1,v1
9d008358:	0314102b 	sltu	v0,t8,s4
9d00835c:	0140a825 	move	s5,t2
9d008360:	241f0001 	li	ra,1
9d008364:	14400006 	bnez	v0,9d008380 <fma+0x524>
9d008368:	00002025 	move	a0,zero
9d00836c:	56980004 	bnel	s4,t8,9d008380 <fma+0x524>
9d008370:	0000f825 	move	ra,zero
9d008374:	14600003 	bnez	v1,9d008384 <fma+0x528>
9d008378:	02071823 	subu	v1,s0,a3
9d00837c:	0000f825 	move	ra,zero
9d008380:	02071823 	subu	v1,s0,a3
9d008384:	0203682b 	sltu	t5,s0,v1
9d008388:	02d71023 	subu	v0,s6,s7
9d00838c:	004d1023 	subu	v0,v0,t5
9d008390:	007f6023 	subu	t4,v1,ra
9d008394:	006c182b 	sltu	v1,v1,t4
9d008398:	00441023 	subu	v0,v0,a0
9d00839c:	00436823 	subu	t5,v0,v1
9d0083a0:	05a10013 	bgez	t5,9d0083f0 <fma+0x594>
9d0083a4:	010f5023 	subu	t2,t0,t7
9d0083a8:	010a402b 	sltu	t0,t0,t2
9d0083ac:	03384823 	subu	t1,t9,t8
9d0083b0:	00f03023 	subu	a2,a3,s0
9d0083b4:	0128a023 	subu	s4,t1,t0
9d0083b8:	00e6102b 	sltu	v0,a3,a2
9d0083bc:	02f61823 	subu	v1,s7,s6
9d0083c0:	01546025 	or	t4,t2,s4
9d0083c4:	00dff821 	addu	ra,a2,ra
9d0083c8:	00621823 	subu	v1,v1,v0
9d0083cc:	000c602b 	sltu	t4,zero,t4
9d0083d0:	03e6302b 	sltu	a2,ra,a2
9d0083d4:	00641021 	addu	v0,v1,a0
9d0083d8:	03ec6023 	subu	t4,ra,t4
9d0083dc:	00c21021 	addu	v0,a2,v0
9d0083e0:	03ecf82b 	sltu	ra,ra,t4
9d0083e4:	0140a825 	move	s5,t2
9d0083e8:	005f6823 	subu	t5,v0,ra
9d0083ec:	2e310001 	sltiu	s1,s1,1
9d0083f0:	018d1025 	or	v0,t4,t5
9d0083f4:	1440ff33 	bnez	v0,9d0080c4 <fma+0x268>
9d0083f8:	02b41025 	or	v0,s5,s4
9d0083fc:	1040febb 	beqz	v0,9d007eec <fma+0x90>
9d008400:	02a02025 	move	a0,s5
9d008404:	0f402cff 	jal	9d00b3fc <a_clz_64>
9d008408:	02802825 	move	a1,s4
9d00840c:	2453ffff 	addiu	s3,v0,-1
9d008410:	06610007 	bgez	s3,9d008430 <fma+0x5d4>
9d008414:	001417c0 	sll	v0,s4,0x1f
9d008418:	00158042 	srl	s0,s5,0x1
9d00841c:	00508025 	or	s0,v0,s0
9d008420:	32aa0001 	andi	t2,s5,0x1
9d008424:	020a8025 	or	s0,s0,t2
9d008428:	1000ff43 	b	9d008138 <fma+0x2dc>
9d00842c:	00149042 	srl	s2,s4,0x1
9d008430:	02603025 	move	a2,s3
9d008434:	02a02025 	move	a0,s5
9d008438:	0f402df4 	jal	9d00b7d0 <__ashldi3>
9d00843c:	02802825 	move	a1,s4
9d008440:	00408025 	move	s0,v0
9d008444:	1000ff3c 	b	9d008138 <fma+0x2dc>
9d008448:	00609025 	move	s2,v1
9d00844c:	3c029d00 	lui	v0,0x9d00
9d008450:	8c547570 	lw	s4,30064(v0)
9d008454:	1000ff4c 	b	9d008188 <fma+0x32c>
9d008458:	8c557574 	lw	s5,30068(v0)
9d00845c:	00101540 	sll	v0,s0,0x15
9d008460:	10400039 	beqz	v0,9d008548 <fma+0x6ec>
9d008464:	001217c0 	sll	v0,s2,0x1f
9d008468:	00102042 	srl	a0,s0,0x1
9d00846c:	00442025 	or	a0,v0,a0
9d008470:	00122842 	srl	a1,s2,0x1
9d008474:	32100001 	andi	s0,s0,0x1
9d008478:	3c024000 	lui	v0,0x4000
9d00847c:	00902025 	or	a0,a0,s0
9d008480:	12200005 	beqz	s1,9d008498 <fma+0x63c>
9d008484:	00452825 	or	a1,v0,a1
9d008488:	00042023 	negu	a0,a0
9d00848c:	0004102b 	sltu	v0,zero,a0
9d008490:	00052823 	negu	a1,a1
9d008494:	00a22823 	subu	a1,a1,v0
9d008498:	0f402ce2 	jal	9d00b388 <__floatdidf>
9d00849c:	00000000 	nop
9d0084a0:	00403025 	move	a2,v0
9d0084a4:	00603825 	move	a3,v1
9d0084a8:	00402025 	move	a0,v0
9d0084ac:	0f402404 	jal	9d009010 <__adddf3>
9d0084b0:	00602825 	move	a1,v1
9d0084b4:	00402025 	move	a0,v0
9d0084b8:	02803025 	move	a2,s4
9d0084bc:	02a03825 	move	a3,s5
9d0084c0:	0f402402 	jal	9d009008 <__subdf3>
9d0084c4:	00602825 	move	a1,v1
9d0084c8:	00408025 	move	s0,v0
9d0084cc:	3c029d00 	lui	v0,0x9d00
9d0084d0:	8c467588 	lw	a2,30088(v0)
9d0084d4:	8c47758c 	lw	a3,30092(v0)
9d0084d8:	02002025 	move	a0,s0
9d0084dc:	00602825 	move	a1,v1
9d0084e0:	0f4026eb 	jal	9d009bac <__muldf3>
9d0084e4:	00608825 	move	s1,v1
9d0084e8:	00403025 	move	a2,v0
9d0084ec:	00603825 	move	a3,v1
9d0084f0:	00402025 	move	a0,v0
9d0084f4:	0f4026eb 	jal	9d009bac <__muldf3>
9d0084f8:	00602825 	move	a1,v1
9d0084fc:	02003025 	move	a2,s0
9d008500:	02203825 	move	a3,s1
9d008504:	02002025 	move	a0,s0
9d008508:	02202825 	move	a1,s1
9d00850c:	00409025 	move	s2,v0
9d008510:	0f402402 	jal	9d009008 <__subdf3>
9d008514:	00609825 	move	s3,v1
9d008518:	00403025 	move	a2,v0
9d00851c:	00603825 	move	a3,v1
9d008520:	02402025 	move	a0,s2
9d008524:	0f4026eb 	jal	9d009bac <__muldf3>
9d008528:	02602825 	move	a1,s3
9d00852c:	00402025 	move	a0,v0
9d008530:	02003025 	move	a2,s0
9d008534:	02203825 	move	a3,s1
9d008538:	0f402404 	jal	9d009010 <__adddf3>
9d00853c:	00602825 	move	a1,v1
9d008540:	0040b025 	move	s6,v0
9d008544:	0060b825 	move	s7,v1
9d008548:	03c03025 	move	a2,s8
9d00854c:	02c02025 	move	a0,s6
9d008550:	0f402b41 	jal	9d00ad04 <scalbn>
9d008554:	02e02825 	move	a1,s7
9d008558:	1000fe6f 	b	9d007f18 <fma+0xbc>
9d00855c:	00409025 	move	s2,v0
9d008560:	00121580 	sll	v0,s2,0x16
9d008564:	00108282 	srl	s0,s0,0xa
9d008568:	00508025 	or	s0,v0,s0
9d00856c:	0004202b 	sltu	a0,zero,a0
9d008570:	00902025 	or	a0,a0,s0
9d008574:	02402825 	move	a1,s2
9d008578:	00041582 	srl	v0,a0,0x16
9d00857c:	7c054804 	ins	a1,zero,0x0,0xa
9d008580:	00452825 	or	a1,v0,a1
9d008584:	12200005 	beqz	s1,9d00859c <fma+0x740>
9d008588:	00042280 	sll	a0,a0,0xa
9d00858c:	00042023 	negu	a0,a0
9d008590:	0004102b 	sltu	v0,zero,a0
9d008594:	00052823 	negu	a1,a1
9d008598:	00a22823 	subu	a1,a1,v0
9d00859c:	0f402ce2 	jal	9d00b388 <__floatdidf>
9d0085a0:	00000000 	nop
9d0085a4:	1000ffe7 	b	9d008544 <fma+0x6e8>
9d0085a8:	0040b025 	move	s6,v0

Disassembly of section .text.__printf_core:

9d0085ac <__printf_core>:
9d0085ac:	27bdff18 	addiu	sp,sp,-232
9d0085b0:	afb400dc 	sw	s4,220(sp)
9d0085b4:	afb300d8 	sw	s3,216(sp)
9d0085b8:	afb200d4 	sw	s2,212(sp)
9d0085bc:	afb100d0 	sw	s1,208(sp)
9d0085c0:	afbf00e4 	sw	ra,228(sp)
9d0085c4:	afb500e0 	sw	s5,224(sp)
9d0085c8:	afb000cc 	sw	s0,204(sp)
9d0085cc:	00809025 	move	s2,a0
9d0085d0:	00c08825 	move	s1,a2
9d0085d4:	afa500b8 	sw	a1,184(sp)
9d0085d8:	00009825 	move	s3,zero
9d0085dc:	3c149d00 	lui	s4,0x9d00
9d0085e0:	8fa500b8 	lw	a1,184(sp)
9d0085e4:	80a20000 	lb	v0,0(a1)
9d0085e8:	104000e4 	beqz	v0,9d00897c <__printf_core+0x3d0>
9d0085ec:	2402ffff 	li	v0,-1
9d0085f0:	afa2009c 	sw	v0,156(sp)
9d0085f4:	27a20018 	addiu	v0,sp,24
9d0085f8:	afa200a4 	sw	v0,164(sp)
9d0085fc:	24020080 	li	v0,128
9d008600:	afa00098 	sw	zero,152(sp)
9d008604:	afa000a0 	sw	zero,160(sp)
9d008608:	afa200a8 	sw	v0,168(sp)
9d00860c:	00008025 	move	s0,zero
9d008610:	24030025 	li	v1,37
9d008614:	00b01021 	addu	v0,a1,s0
9d008618:	80420000 	lb	v0,0(v0)
9d00861c:	10400003 	beqz	v0,9d00862c <__printf_core+0x80>
9d008620:	00000000 	nop
9d008624:	5443fffb 	bnel	v0,v1,9d008614 <__printf_core+0x68>
9d008628:	26100001 	addiu	s0,s0,1
9d00862c:	12000006 	beqz	s0,9d008648 <__printf_core+0x9c>
9d008630:	02003025 	move	a2,s0
9d008634:	0f402d1a 	jal	9d00b468 <__out>
9d008638:	02402025 	move	a0,s2
9d00863c:	8fa200b8 	lw	v0,184(sp)
9d008640:	00501021 	addu	v0,v0,s0
9d008644:	afa200b8 	sw	v0,184(sp)
9d008648:	8fb500b8 	lw	s5,184(sp)
9d00864c:	24020025 	li	v0,37
9d008650:	82a30000 	lb	v1,0(s5)
9d008654:	146200c2 	bne	v1,v0,9d008960 <__printf_core+0x3b4>
9d008658:	26b50001 	addiu	s5,s5,1
9d00865c:	afb500b8 	sw	s5,184(sp)
9d008660:	2405002b 	li	a1,43
9d008664:	2406002d 	li	a2,45
9d008668:	24030030 	li	v1,48
9d00866c:	24070020 	li	a3,32
9d008670:	24080023 	li	t0,35
9d008674:	8fa400b8 	lw	a0,184(sp)
9d008678:	80820000 	lb	v0,0(a0)
9d00867c:	5045001b 	beql	v0,a1,9d0086ec <__printf_core+0x140>
9d008680:	8fa20098 	lw	v0,152(sp)
9d008684:	2849002c 	slti	t1,v0,44
9d008688:	1120001e 	beqz	t1,9d008704 <__printf_core+0x158>
9d00868c:	00000000 	nop
9d008690:	50470018 	beql	v0,a3,9d0086f4 <__printf_core+0x148>
9d008694:	8fa20098 	lw	v0,152(sp)
9d008698:	50480018 	beql	v0,t0,9d0086fc <__printf_core+0x150>
9d00869c:	8fa20098 	lw	v0,152(sp)
9d0086a0:	2403002a 	li	v1,42
9d0086a4:	5043001e 	beql	v0,v1,9d008720 <__printf_core+0x174>
9d0086a8:	8e220000 	lw	v0,0(s1)
9d0086ac:	0f402ca5 	jal	9d00b294 <atoi>
9d0086b0:	00000000 	nop
9d0086b4:	afa200a0 	sw	v0,160(sp)
9d0086b8:	8fa300b8 	lw	v1,184(sp)
9d0086bc:	80620000 	lb	v0,0(v1)
9d0086c0:	2442ffd0 	addiu	v0,v0,-48
9d0086c4:	2c42000a 	sltiu	v0,v0,10
9d0086c8:	10400021 	beqz	v0,9d008750 <__printf_core+0x1a4>
9d0086cc:	24630001 	addiu	v1,v1,1
9d0086d0:	1000fff9 	b	9d0086b8 <__printf_core+0x10c>
9d0086d4:	afa300b8 	sw	v1,184(sp)
9d0086d8:	34420001 	ori	v0,v0,0x1
9d0086dc:	24840001 	addiu	a0,a0,1
9d0086e0:	afa20098 	sw	v0,152(sp)
9d0086e4:	1000ffe3 	b	9d008674 <__printf_core+0xc8>
9d0086e8:	afa400b8 	sw	a0,184(sp)
9d0086ec:	1000fffb 	b	9d0086dc <__printf_core+0x130>
9d0086f0:	34420004 	ori	v0,v0,0x4
9d0086f4:	1000fff9 	b	9d0086dc <__printf_core+0x130>
9d0086f8:	34420008 	ori	v0,v0,0x8
9d0086fc:	1000fff7 	b	9d0086dc <__printf_core+0x130>
9d008700:	34420010 	ori	v0,v0,0x10
9d008704:	5046fff4 	beql	v0,a2,9d0086d8 <__printf_core+0x12c>
9d008708:	8fa20098 	lw	v0,152(sp)
9d00870c:	5443ffe5 	bnel	v0,v1,9d0086a4 <__printf_core+0xf8>
9d008710:	2403002a 	li	v1,42
9d008714:	8fa20098 	lw	v0,152(sp)
9d008718:	1000fff0 	b	9d0086dc <__printf_core+0x130>
9d00871c:	34420002 	ori	v0,v0,0x2
9d008720:	24840001 	addiu	a0,a0,1
9d008724:	afa400b8 	sw	a0,184(sp)
9d008728:	24430004 	addiu	v1,v0,4
9d00872c:	8c420000 	lw	v0,0(v0)
9d008730:	ae230000 	sw	v1,0(s1)
9d008734:	04410006 	bgez	v0,9d008750 <__printf_core+0x1a4>
9d008738:	afa200a0 	sw	v0,160(sp)
9d00873c:	8fa30098 	lw	v1,152(sp)
9d008740:	00021023 	negu	v0,v0
9d008744:	afa200a0 	sw	v0,160(sp)
9d008748:	38630001 	xori	v1,v1,0x1
9d00874c:	afa30098 	sw	v1,152(sp)
9d008750:	8fa20098 	lw	v0,152(sp)
9d008754:	30430001 	andi	v1,v0,0x1
9d008758:	10600002 	beqz	v1,9d008764 <__printf_core+0x1b8>
9d00875c:	7c020844 	ins	v0,zero,0x1,0x1
9d008760:	afa20098 	sw	v0,152(sp)
9d008764:	8fa200b8 	lw	v0,184(sp)
9d008768:	2403002e 	li	v1,46
9d00876c:	80440000 	lb	a0,0(v0)
9d008770:	1483000d 	bne	a0,v1,9d0087a8 <__printf_core+0x1fc>
9d008774:	24440001 	addiu	a0,v0,1
9d008778:	afa0009c 	sw	zero,156(sp)
9d00877c:	afa400b8 	sw	a0,184(sp)
9d008780:	80450001 	lb	a1,1(v0)
9d008784:	2403002a 	li	v1,42
9d008788:	14a30023 	bne	a1,v1,9d008818 <__printf_core+0x26c>
9d00878c:	24420002 	addiu	v0,v0,2
9d008790:	afa200b8 	sw	v0,184(sp)
9d008794:	8e220000 	lw	v0,0(s1)
9d008798:	24430004 	addiu	v1,v0,4
9d00879c:	8c420000 	lw	v0,0(v0)
9d0087a0:	ae230000 	sw	v1,0(s1)
9d0087a4:	afa2009c 	sw	v0,156(sp)
9d0087a8:	0f402d31 	jal	9d00b4c4 <__fmt_state>
9d0087ac:	27a400b8 	addiu	a0,sp,184
9d0087b0:	afa200c0 	sw	v0,192(sp)
9d0087b4:	8fa200b8 	lw	v0,184(sp)
9d0087b8:	0f402e4c 	jal	9d00b930 <tolower>
9d0087bc:	80440000 	lb	a0,0(v0)
9d0087c0:	24030069 	li	v1,105
9d0087c4:	10430077 	beq	v0,v1,9d0089a4 <__printf_core+0x3f8>
9d0087c8:	8fa500c0 	lw	a1,192(sp)
9d0087cc:	2843006a 	slti	v1,v0,106
9d0087d0:	1060002f 	beqz	v1,9d008890 <__printf_core+0x2e4>
9d0087d4:	24030063 	li	v1,99
9d0087d8:	104300be 	beq	v0,v1,9d008ad4 <__printf_core+0x528>
9d0087dc:	28430064 	slti	v1,v0,100
9d0087e0:	10600018 	beqz	v1,9d008844 <__printf_core+0x298>
9d0087e4:	24030025 	li	v1,37
9d0087e8:	104300cb 	beq	v0,v1,9d008b18 <__printf_core+0x56c>
9d0087ec:	24030061 	li	v1,97
9d0087f0:	5043004f 	beql	v0,v1,9d008930 <__printf_core+0x384>
9d0087f4:	02203025 	move	a2,s1
9d0087f8:	2402ffff 	li	v0,-1
9d0087fc:	afb500b8 	sw	s5,184(sp)
9d008800:	afa00098 	sw	zero,152(sp)
9d008804:	afa000a0 	sw	zero,160(sp)
9d008808:	afa2009c 	sw	v0,156(sp)
9d00880c:	afa00010 	sw	zero,16(sp)
9d008810:	100000c9 	b	9d008b38 <__printf_core+0x58c>
9d008814:	00003825 	move	a3,zero
9d008818:	0f402ca5 	jal	9d00b294 <atoi>
9d00881c:	00000000 	nop
9d008820:	afa2009c 	sw	v0,156(sp)
9d008824:	8fa300b8 	lw	v1,184(sp)
9d008828:	80620000 	lb	v0,0(v1)
9d00882c:	2442ffd0 	addiu	v0,v0,-48
9d008830:	2c42000a 	sltiu	v0,v0,10
9d008834:	1040ffdc 	beqz	v0,9d0087a8 <__printf_core+0x1fc>
9d008838:	24630001 	addiu	v1,v1,1
9d00883c:	1000fff9 	b	9d008824 <__printf_core+0x278>
9d008840:	afa300b8 	sw	v1,184(sp)
9d008844:	24030064 	li	v1,100
9d008848:	10430056 	beq	v0,v1,9d0089a4 <__printf_core+0x3f8>
9d00884c:	28420068 	slti	v0,v0,104
9d008850:	1040ffea 	beqz	v0,9d0087fc <__printf_core+0x250>
9d008854:	2402ffff 	li	v0,-1
9d008858:	02203025 	move	a2,s1
9d00885c:	0f402d5c 	jal	9d00b570 <__pop_float>
9d008860:	27a400b0 	addiu	a0,sp,176
9d008864:	10400097 	beqz	v0,9d008ac4 <__printf_core+0x518>
9d008868:	8fa200b8 	lw	v0,184(sp)
9d00886c:	27a600b0 	addiu	a2,sp,176
9d008870:	27a50098 	addiu	a1,sp,152
9d008874:	24430001 	addiu	v1,v0,1
9d008878:	afa300b8 	sw	v1,184(sp)
9d00887c:	80470000 	lb	a3,0(v0)
9d008880:	0f401d6a 	jal	9d0075a8 <__fmt_fp>
9d008884:	02402025 	move	a0,s2
9d008888:	10000035 	b	9d008960 <__printf_core+0x3b4>
9d00888c:	02028021 	addu	s0,s0,v0
9d008890:	24030070 	li	v1,112
9d008894:	1043006e 	beq	v0,v1,9d008a50 <__printf_core+0x4a4>
9d008898:	28430071 	slti	v1,v0,113
9d00889c:	10600013 	beqz	v1,9d0088ec <__printf_core+0x340>
9d0088a0:	2403006e 	li	v1,110
9d0088a4:	10430083 	beq	v0,v1,9d008ab4 <__printf_core+0x508>
9d0088a8:	2403006f 	li	v1,111
9d0088ac:	1443ffd3 	bne	v0,v1,9d0087fc <__printf_core+0x250>
9d0088b0:	2402ffff 	li	v0,-1
9d0088b4:	02203825 	move	a3,s1
9d0088b8:	00003025 	move	a2,zero
9d0088bc:	0f4028e4 	jal	9d00a390 <__pop_int>
9d0088c0:	27a400b0 	addiu	a0,sp,176
9d0088c4:	1040007f 	beqz	v0,9d008ac4 <__printf_core+0x518>
9d0088c8:	8fa200b8 	lw	v0,184(sp)
9d0088cc:	27a600b0 	addiu	a2,sp,176
9d0088d0:	27a50098 	addiu	a1,sp,152
9d0088d4:	24420001 	addiu	v0,v0,1
9d0088d8:	02402025 	move	a0,s2
9d0088dc:	0f402e7f 	jal	9d00b9fc <__fmt_o>
9d0088e0:	afa200b8 	sw	v0,184(sp)
9d0088e4:	1000001e 	b	9d008960 <__printf_core+0x3b4>
9d0088e8:	02028021 	addu	s0,s0,v0
9d0088ec:	24030075 	li	v1,117
9d0088f0:	1043003a 	beq	v0,v1,9d0089dc <__printf_core+0x430>
9d0088f4:	24030078 	li	v1,120
9d0088f8:	10430046 	beq	v0,v1,9d008a14 <__printf_core+0x468>
9d0088fc:	24030073 	li	v1,115
9d008900:	1443ffbd 	bne	v0,v1,9d0087f8 <__printf_core+0x24c>
9d008904:	24020080 	li	v0,128
9d008908:	14a2006e 	bne	a1,v0,9d008ac4 <__printf_core+0x518>
9d00890c:	8fa200b8 	lw	v0,184(sp)
9d008910:	00003825 	move	a3,zero
9d008914:	24420001 	addiu	v0,v0,1
9d008918:	afa200b8 	sw	v0,184(sp)
9d00891c:	8e220000 	lw	v0,0(s1)
9d008920:	24430004 	addiu	v1,v0,4
9d008924:	ae230000 	sw	v1,0(s1)
9d008928:	10000076 	b	9d008b04 <__printf_core+0x558>
9d00892c:	8c460000 	lw	a2,0(v0)
9d008930:	0f402d5c 	jal	9d00b570 <__pop_float>
9d008934:	27a400b0 	addiu	a0,sp,176
9d008938:	10400062 	beqz	v0,9d008ac4 <__printf_core+0x518>
9d00893c:	8fa200b8 	lw	v0,184(sp)
9d008940:	27a600b0 	addiu	a2,sp,176
9d008944:	27a50098 	addiu	a1,sp,152
9d008948:	24430001 	addiu	v1,v0,1
9d00894c:	afa300b8 	sw	v1,184(sp)
9d008950:	80470000 	lb	a3,0(v0)
9d008954:	0f402e81 	jal	9d00ba04 <__fmt_a>
9d008958:	02402025 	move	a0,s2
9d00895c:	02028021 	addu	s0,s0,v0
9d008960:	02708021 	addu	s0,s3,s0
9d008964:	0213982a 	slt	s3,s0,s3
9d008968:	12600077 	beqz	s3,9d008b48 <__printf_core+0x59c>
9d00896c:	3c02a000 	lui	v0,0xa000
9d008970:	2403004f 	li	v1,79
9d008974:	ac430008 	sw	v1,8(v0)
9d008978:	2413ffff 	li	s3,-1
9d00897c:	8fbf00e4 	lw	ra,228(sp)
9d008980:	02601025 	move	v0,s3
9d008984:	8fb500e0 	lw	s5,224(sp)
9d008988:	8fb400dc 	lw	s4,220(sp)
9d00898c:	8fb300d8 	lw	s3,216(sp)
9d008990:	8fb200d4 	lw	s2,212(sp)
9d008994:	8fb100d0 	lw	s1,208(sp)
9d008998:	8fb000cc 	lw	s0,204(sp)
9d00899c:	03e00008 	jr	ra
9d0089a0:	27bd00e8 	addiu	sp,sp,232
9d0089a4:	02203825 	move	a3,s1
9d0089a8:	24060001 	li	a2,1
9d0089ac:	0f4028e4 	jal	9d00a390 <__pop_int>
9d0089b0:	27a400b0 	addiu	a0,sp,176
9d0089b4:	10400043 	beqz	v0,9d008ac4 <__printf_core+0x518>
9d0089b8:	8fa200b8 	lw	v0,184(sp)
9d0089bc:	27a600b0 	addiu	a2,sp,176
9d0089c0:	27a50098 	addiu	a1,sp,152
9d0089c4:	24420001 	addiu	v0,v0,1
9d0089c8:	02402025 	move	a0,s2
9d0089cc:	0f402946 	jal	9d00a518 <__fmt_d>
9d0089d0:	afa200b8 	sw	v0,184(sp)
9d0089d4:	1000ffe2 	b	9d008960 <__printf_core+0x3b4>
9d0089d8:	02028021 	addu	s0,s0,v0
9d0089dc:	02203825 	move	a3,s1
9d0089e0:	00003025 	move	a2,zero
9d0089e4:	0f4028e4 	jal	9d00a390 <__pop_int>
9d0089e8:	27a400b0 	addiu	a0,sp,176
9d0089ec:	10400035 	beqz	v0,9d008ac4 <__printf_core+0x518>
9d0089f0:	8fa200b8 	lw	v0,184(sp)
9d0089f4:	27a600b0 	addiu	a2,sp,176
9d0089f8:	27a50098 	addiu	a1,sp,152
9d0089fc:	24420001 	addiu	v0,v0,1
9d008a00:	02402025 	move	a0,s2
9d008a04:	0f402e7f 	jal	9d00b9fc <__fmt_o>
9d008a08:	afa200b8 	sw	v0,184(sp)
9d008a0c:	1000ffd4 	b	9d008960 <__printf_core+0x3b4>
9d008a10:	02028021 	addu	s0,s0,v0
9d008a14:	02203825 	move	a3,s1
9d008a18:	00003025 	move	a2,zero
9d008a1c:	0f4028e4 	jal	9d00a390 <__pop_int>
9d008a20:	27a400b0 	addiu	a0,sp,176
9d008a24:	10400027 	beqz	v0,9d008ac4 <__printf_core+0x518>
9d008a28:	8fa200b8 	lw	v0,184(sp)
9d008a2c:	24430001 	addiu	v1,v0,1
9d008a30:	afa300b8 	sw	v1,184(sp)
9d008a34:	80470000 	lb	a3,0(v0)
9d008a38:	27a600b0 	addiu	a2,sp,176
9d008a3c:	27a50098 	addiu	a1,sp,152
9d008a40:	0f402e81 	jal	9d00ba04 <__fmt_a>
9d008a44:	02402025 	move	a0,s2
9d008a48:	1000ffc5 	b	9d008960 <__printf_core+0x3b4>
9d008a4c:	02028021 	addu	s0,s0,v0
9d008a50:	02203825 	move	a3,s1
9d008a54:	00003025 	move	a2,zero
9d008a58:	240500f0 	li	a1,240
9d008a5c:	0f4028e4 	jal	9d00a390 <__pop_int>
9d008a60:	27a400b0 	addiu	a0,sp,176
9d008a64:	10400017 	beqz	v0,9d008ac4 <__printf_core+0x518>
9d008a68:	8fa200b8 	lw	v0,184(sp)
9d008a6c:	8fa300b4 	lw	v1,180(sp)
9d008a70:	24420001 	addiu	v0,v0,1
9d008a74:	afa200b8 	sw	v0,184(sp)
9d008a78:	8fa200b0 	lw	v0,176(sp)
9d008a7c:	00431025 	or	v0,v0,v1
9d008a80:	1440ffed 	bnez	v0,9d008a38 <__printf_core+0x48c>
9d008a84:	24070078 	li	a3,120
9d008a88:	0f402e03 	jal	9d00b80c <strlen>
9d008a8c:	26847560 	addiu	a0,s4,30048
9d008a90:	8fa30098 	lw	v1,152(sp)
9d008a94:	8fa700a0 	lw	a3,160(sp)
9d008a98:	00403025 	move	a2,v0
9d008a9c:	afa30010 	sw	v1,16(sp)
9d008aa0:	26857560 	addiu	a1,s4,30048
9d008aa4:	0f402ac1 	jal	9d00ab04 <__pad>
9d008aa8:	02402025 	move	a0,s2
9d008aac:	1000ffac 	b	9d008960 <__printf_core+0x3b4>
9d008ab0:	02028021 	addu	s0,s0,v0
9d008ab4:	02203825 	move	a3,s1
9d008ab8:	02703021 	addu	a2,s3,s0
9d008abc:	0f402b7d 	jal	9d00adf4 <__pop_ptr>
9d008ac0:	27a400b0 	addiu	a0,sp,176
9d008ac4:	8fa200b8 	lw	v0,184(sp)
9d008ac8:	24420001 	addiu	v0,v0,1
9d008acc:	1000ffa4 	b	9d008960 <__printf_core+0x3b4>
9d008ad0:	afa200b8 	sw	v0,184(sp)
9d008ad4:	24020080 	li	v0,128
9d008ad8:	14a2fffa 	bne	a1,v0,9d008ac4 <__printf_core+0x518>
9d008adc:	8fa200b8 	lw	v0,184(sp)
9d008ae0:	24070001 	li	a3,1
9d008ae4:	27a600b0 	addiu	a2,sp,176
9d008ae8:	24420001 	addiu	v0,v0,1
9d008aec:	afa200b8 	sw	v0,184(sp)
9d008af0:	8e220000 	lw	v0,0(s1)
9d008af4:	24430004 	addiu	v1,v0,4
9d008af8:	8c420000 	lw	v0,0(v0)
9d008afc:	ae230000 	sw	v1,0(s1)
9d008b00:	a3a200b0 	sb	v0,176(sp)
9d008b04:	27a50098 	addiu	a1,sp,152
9d008b08:	0f402e83 	jal	9d00ba0c <__fmt_s>
9d008b0c:	02402025 	move	a0,s2
9d008b10:	1000ff93 	b	9d008960 <__printf_core+0x3b4>
9d008b14:	02028021 	addu	s0,s0,v0
9d008b18:	24020080 	li	v0,128
9d008b1c:	14a2ffe9 	bne	a1,v0,9d008ac4 <__printf_core+0x518>
9d008b20:	8fa200b8 	lw	v0,184(sp)
9d008b24:	8fa700a0 	lw	a3,160(sp)
9d008b28:	24420001 	addiu	v0,v0,1
9d008b2c:	afa200b8 	sw	v0,184(sp)
9d008b30:	8fa20098 	lw	v0,152(sp)
9d008b34:	afa20010 	sw	v0,16(sp)
9d008b38:	3c059d00 	lui	a1,0x9d00
9d008b3c:	24060001 	li	a2,1
9d008b40:	1000ffd8 	b	9d008aa4 <__printf_core+0x4f8>
9d008b44:	24a57568 	addiu	a1,a1,30056
9d008b48:	1000fea5 	b	9d0085e0 <__printf_core+0x34>
9d008b4c:	02009825 	move	s3,s0

Disassembly of section .text.dp32mul:

9d008b50 <__divdf3>:
9d008b50:	00055040 000a5542 00054ac0 00047d42     @P..BU...J..B}..
9d008b60:	012f4825 000442c0 3c0e8000 012e4825     %H/..B.....<%H..
9d008b70:	00076840 000d6d42 000762c0 00067d42     @h..Bm...b..B}..
9d008b80:	018f6025 00065ac0 018e6025 00a72826     %`...Z..%`..&(..
9d008b90:	00ae2824 254fffff 2de107fe 102000cb     $(....O%...-.. .
9d008ba0:	00000000                                ....

9d008ba4 <Dlab1>:
9d008ba4:	25afffff 	addiu	t7,t5,-1
9d008ba8:	2de107fe 	sltiu	at,t7,2046
9d008bac:	102000f4 	beqz	at,9d008f80 <DspecB>
9d008bb0:	00000000 	nop

9d008bb4 <Dlab2>:
9d008bb4:	014d5023 	subu	t2,t2,t5
9d008bb8:	254a03ff 	addiu	t2,t2,1023
9d008bbc:	00084042 	srl	t0,t0,0x1
9d008bc0:	00097fc0 	sll	t7,t1,0x1f
9d008bc4:	010f4025 	or	t0,t0,t7
9d008bc8:	00094842 	srl	t1,t1,0x1
9d008bcc:	000c3c02 	srl	a3,t4,0x10
9d008bd0:	00e001f4 	teq	a3,zero,0x7
9d008bd4:	0127001b 	divu	zero,t1,a3
9d008bd8:	00007012 	mflo	t6
9d008bdc:	00004810 	mfhi	t1
9d008be0:	3186ffff 	andi	a2,t4,0xffff
9d008be4:	00ce0019 	multu	a2,t6
9d008be8:	00002012 	mflo	a0
9d008bec:	00094c00 	sll	t1,t1,0x10
9d008bf0:	00087c02 	srl	t7,t0,0x10
9d008bf4:	012f4825 	or	t1,t1,t7
9d008bf8:	0124782b 	sltu	t7,t1,a0
9d008bfc:	11e00006 	beqz	t7,9d008c18 <i20>
9d008c00:	01244823 	subu	t1,t1,a0

9d008c04 <b21>:
9d008c04:	25ceffff 	addiu	t6,t6,-1
9d008c08:	012c4821 	addu	t1,t1,t4
9d008c0c:	012c082b 	sltu	at,t1,t4
9d008c10:	1020fffc 	beqz	at,9d008c04 <b21>
9d008c14:	00000000 	nop

9d008c18 <i20>:
9d008c18:	00e001f4 	teq	a3,zero,0x7
9d008c1c:	0127001b 	divu	zero,t1,a3
9d008c20:	00003812 	mflo	a3
9d008c24:	00004810 	mfhi	t1
9d008c28:	00c70019 	multu	a2,a3
9d008c2c:	00002012 	mflo	a0
9d008c30:	00094c00 	sll	t1,t1,0x10
9d008c34:	310fffff 	andi	t7,t0,0xffff
9d008c38:	012f4825 	or	t1,t1,t7
9d008c3c:	0124782b 	sltu	t7,t1,a0
9d008c40:	11e00006 	beqz	t7,9d008c5c <i22>
9d008c44:	01244823 	subu	t1,t1,a0

9d008c48 <b23>:
9d008c48:	24e7ffff 	addiu	a3,a3,-1
9d008c4c:	012c4821 	addu	t1,t1,t4
9d008c50:	012c082b 	sltu	at,t1,t4
9d008c54:	1020fffc 	beqz	at,9d008c48 <b23>
9d008c58:	00000000 	nop

9d008c5c <i22>:
9d008c5c:	000e7400 	sll	t6,t6,0x10
9d008c60:	01c77021 	addu	t6,t6,a3
9d008c64:	01cb0019 	multu	t6,t3
9d008c68:	00003812 	mflo	a3
9d008c6c:	00002010 	mfhi	a0
9d008c70:	24080000 	li	t0,0
9d008c74:	0107782b 	sltu	t7,t0,a3
9d008c78:	01074023 	subu	t0,t0,a3
9d008c7c:	012f102b 	sltu	v0,t1,t7
9d008c80:	012f4823 	subu	t1,t1,t7
9d008c84:	0124782b 	sltu	t7,t1,a0
9d008c88:	01e27825 	or	t7,t7,v0
9d008c8c:	11e0000b 	beqz	t7,9d008cbc <i24>
9d008c90:	01244823 	subu	t1,t1,a0

9d008c94 <Dlab3>:
9d008c94:	25ceffff 	addiu	t6,t6,-1
9d008c98:	010b4021 	addu	t0,t0,t3
9d008c9c:	010b782b 	sltu	t7,t0,t3
9d008ca0:	012c4821 	addu	t1,t1,t4
9d008ca4:	012f4821 	addu	t1,t1,t7
9d008ca8:	112c0002 	beq	t1,t4,9d008cb4 <L31>
9d008cac:	00000000 	nop
9d008cb0:	012c782b 	sltu	t7,t1,t4

9d008cb4 <L31>:
9d008cb4:	11e0fff7 	beqz	t7,9d008c94 <Dlab3>
9d008cb8:	00000000 	nop

9d008cbc <i24>:
9d008cbc:	152c0006 	bne	t1,t4,9d008cd8 <i25>
9d008cc0:	00000000 	nop
9d008cc4:	000b2025 	or	a0,zero,t3
9d008cc8:	00084825 	or	t1,zero,t0
9d008ccc:	240d0000 	li	t5,0
9d008cd0:	1000002a 	b	9d008d7c <e25>
9d008cd4:	000d3825 	or	a3,zero,t5

9d008cd8 <i25>:
9d008cd8:	000c3c02 	srl	a3,t4,0x10
9d008cdc:	00e001f4 	teq	a3,zero,0x7
9d008ce0:	0127001b 	divu	zero,t1,a3
9d008ce4:	00006812 	mflo	t5
9d008ce8:	00004810 	mfhi	t1
9d008cec:	3186ffff 	andi	a2,t4,0xffff
9d008cf0:	00cd0019 	multu	a2,t5
9d008cf4:	00002012 	mflo	a0
9d008cf8:	00094c00 	sll	t1,t1,0x10
9d008cfc:	00087c02 	srl	t7,t0,0x10
9d008d00:	012f4825 	or	t1,t1,t7
9d008d04:	0124782b 	sltu	t7,t1,a0
9d008d08:	11e00006 	beqz	t7,9d008d24 <i26>
9d008d0c:	01244823 	subu	t1,t1,a0

9d008d10 <b27>:
9d008d10:	25adffff 	addiu	t5,t5,-1
9d008d14:	012c4821 	addu	t1,t1,t4
9d008d18:	012c082b 	sltu	at,t1,t4
9d008d1c:	1020fffc 	beqz	at,9d008d10 <b27>
9d008d20:	00000000 	nop

9d008d24 <i26>:
9d008d24:	00e001f4 	teq	a3,zero,0x7
9d008d28:	0127001b 	divu	zero,t1,a3
9d008d2c:	00003812 	mflo	a3
9d008d30:	00004810 	mfhi	t1
9d008d34:	00c70019 	multu	a2,a3
9d008d38:	00002012 	mflo	a0
9d008d3c:	00094c00 	sll	t1,t1,0x10
9d008d40:	310fffff 	andi	t7,t0,0xffff
9d008d44:	012f4825 	or	t1,t1,t7
9d008d48:	0124782b 	sltu	t7,t1,a0
9d008d4c:	11e00006 	beqz	t7,9d008d68 <i28>
9d008d50:	01244823 	subu	t1,t1,a0

9d008d54 <b29>:
9d008d54:	24e7ffff 	addiu	a3,a3,-1
9d008d58:	012c4821 	addu	t1,t1,t4
9d008d5c:	012c082b 	sltu	at,t1,t4
9d008d60:	1020fffc 	beqz	at,9d008d54 <b29>
9d008d64:	00000000 	nop

9d008d68 <i28>:
9d008d68:	000d6c00 	sll	t5,t5,0x10
9d008d6c:	01a76821 	addu	t5,t5,a3
9d008d70:	01ab0019 	multu	t5,t3
9d008d74:	00003812 	mflo	a3
9d008d78:	00002010 	mfhi	a0

9d008d7c <e25>:
9d008d7c:	24080000 	li	t0,0
9d008d80:	0107782b 	sltu	t7,t0,a3
9d008d84:	01074023 	subu	t0,t0,a3
9d008d88:	012f102b 	sltu	v0,t1,t7
9d008d8c:	012f4823 	subu	t1,t1,t7
9d008d90:	0124782b 	sltu	t7,t1,a0
9d008d94:	01e27825 	or	t7,t7,v0
9d008d98:	11e0000b 	beqz	t7,9d008dc8 <i30>
9d008d9c:	01244823 	subu	t1,t1,a0

9d008da0 <Dlab4>:
9d008da0:	25adffff 	addiu	t5,t5,-1
9d008da4:	010b4021 	addu	t0,t0,t3
9d008da8:	010b782b 	sltu	t7,t0,t3
9d008dac:	012c4821 	addu	t1,t1,t4
9d008db0:	012f4821 	addu	t1,t1,t7
9d008db4:	112c0002 	beq	t1,t4,9d008dc0 <L32>
9d008db8:	00000000 	nop
9d008dbc:	012c782b 	sltu	t7,t1,t4

9d008dc0 <L32>:
9d008dc0:	11e0fff7 	beqz	t7,9d008da0 <Dlab4>
9d008dc4:	00000000 	nop

9d008dc8 <i30>:
9d008dc8:	05c00006 	bltz	t6,9d008de4 <i31>
9d008dcc:	00000000 	nop
9d008dd0:	01a0782a 	slt	t7,t5,zero
9d008dd4:	01ad6821 	addu	t5,t5,t5
9d008dd8:	01ce7021 	addu	t6,t6,t6
9d008ddc:	01cf7021 	addu	t6,t6,t7
9d008de0:	254affff 	addiu	t2,t2,-1

9d008de4 <i31>:
9d008de4:	01287825 	or	t7,t1,t0
9d008de8:	11e00002 	beqz	t7,9d008df4 <i32>
9d008dec:	00000000 	nop
9d008df0:	35ad0001 	ori	t5,t5,0x1

9d008df4 <i32>:
9d008df4:	000e4825 	or	t1,zero,t6
9d008df8:	000d4025 	or	t0,zero,t5
9d008dfc:	254fffff 	addiu	t7,t2,-1
9d008e00:	2de107fe 	sltiu	at,t7,2046
9d008e04:	10200015 	beqz	at,9d008e5c <Doveund>
9d008e08:	00000000 	nop
9d008e0c:	25080400 	addiu	t0,t0,1024
9d008e10:	2d0f0400 	sltiu	t7,t0,1024
9d008e14:	012f4821 	addu	t1,t1,t7
9d008e18:	012f782b 	sltu	t7,t1,t7
9d008e1c:	014f5021 	addu	t2,t2,t7

9d008e20 <Dlab8>:
9d008e20:	00087ac2 	srl	t7,t0,0xb
9d008e24:	31ef0001 	andi	t7,t7,0x1
9d008e28:	010f4023 	subu	t0,t0,t7
9d008e2c:	000822c2 	srl	a0,t0,0xb
9d008e30:	00097d40 	sll	t7,t1,0x15
9d008e34:	008f2025 	or	a0,a0,t7
9d008e38:	00097840 	sll	t7,t1,0x1
9d008e3c:	000f7b02 	srl	t7,t7,0xc
9d008e40:	00af2825 	or	a1,a1,t7
9d008e44:	000a7d00 	sll	t7,t2,0x14
9d008e48:	00af2825 	or	a1,a1,t7

9d008e4c <Dret>:
9d008e4c:	00041025 	or	v0,zero,a0
9d008e50:	00051825 	or	v1,zero,a1

9d008e54 <D999>:
9d008e54:	03e00008 	jr	ra
9d008e58:	00000000 	nop

9d008e5c <Doveund>:
9d008e5c:	1d400044 	bgtz	t2,9d008f70 <Dinf>
9d008e60:	00000000 	nop
9d008e64:	240e0001 	li	t6,1
9d008e68:	01ca7023 	subu	t6,t6,t2

9d008e6c <L33>:
9d008e6c:	2dc10020 	sltiu	at,t6,32
9d008e70:	14200007 	bnez	at,9d008e90 <L34>
9d008e74:	00000000 	nop
9d008e78:	21ceffe0 	addi	t6,t6,-32
9d008e7c:	0008202b 	sltu	a0,zero,t0
9d008e80:	1009000d 	beq	zero,t1,9d008eb8 <L35>
9d008e84:	01244025 	or	t0,t1,a0
9d008e88:	1000fff8 	b	9d008e6c <L33>
9d008e8c:	34090000 	li	t1,0x0

9d008e90 <L34>:
9d008e90:	11c00009 	beqz	t6,9d008eb8 <L35>
9d008e94:	00000000 	nop
9d008e98:	000e3022 	neg	a2,t6
9d008e9c:	00c82004 	sllv	a0,t0,a2
9d008ea0:	00c93004 	sllv	a2,t1,a2
9d008ea4:	01c84006 	srlv	t0,t0,t6
9d008ea8:	01c94806 	srlv	t1,t1,t6
9d008eac:	10800002 	beqz	a0,9d008eb8 <L35>
9d008eb0:	00c84025 	or	t0,a2,t0
9d008eb4:	35080002 	ori	t0,t0,0x2

9d008eb8 <L35>:
9d008eb8:	25080400 	addiu	t0,t0,1024
9d008ebc:	2d0f0400 	sltiu	t7,t0,1024
9d008ec0:	012f4821 	addu	t1,t1,t7
9d008ec4:	1000ffd6 	b	9d008e20 <Dlab8>
9d008ec8:	000957c2 	srl	t2,t1,0x1f

9d008ecc <DspecA>:
9d008ecc:	0100782a 	slt	t7,t0,zero
9d008ed0:	01084021 	addu	t0,t0,t0
9d008ed4:	01294821 	addu	t1,t1,t1
9d008ed8:	15400017 	bnez	t2,9d008f38 <i33>
9d008edc:	012f4821 	addu	t1,t1,t7
9d008ee0:	01287825 	or	t7,t1,t0
9d008ee4:	11e00014 	beqz	t7,9d008f38 <i33>
9d008ee8:	00000000 	nop
9d008eec:	15200008 	bnez	t1,9d008f10 <L36>
9d008ef0:	00000000 	nop
9d008ef4:	15000003 	bnez	t0,9d008f04 <L37>
9d008ef8:	00000000 	nop
9d008efc:	1000ff29 	b	9d008ba4 <Dlab1>
9d008f00:	240a0000 	li	t2,0

9d008f04 <L37>:
9d008f04:	01004825 	move	t1,t0
9d008f08:	24080000 	li	t0,0
9d008f0c:	254affe0 	addiu	t2,t2,-32

9d008f10 <L36>:
9d008f10:	712e7020 	clz	t6,t1
9d008f14:	11c0ff23 	beqz	t6,9d008ba4 <Dlab1>
9d008f18:	00000000 	nop
9d008f1c:	014e5023 	subu	t2,t2,t6
9d008f20:	000e3022 	neg	a2,t6
9d008f24:	00c83006 	srlv	a2,t0,a2
9d008f28:	01c84004 	sllv	t0,t0,t6
9d008f2c:	01c94804 	sllv	t1,t1,t6
9d008f30:	1000ff1c 	b	9d008ba4 <Dlab1>
9d008f34:	01264825 	or	t1,t1,a2

9d008f38 <i33>:
9d008f38:	154d0005 	bne	t2,t5,9d008f50 <i35>
9d008f3c:	00000000 	nop
9d008f40:	000c7840 	sll	t7,t4,0x1
9d008f44:	01eb7825 	or	t7,t7,t3
9d008f48:	11e0002b 	beqz	t7,9d008ff8 <Dnan>
9d008f4c:	00000000 	nop

9d008f50 <i35>:
9d008f50:	240107ff 	li	at,2047
9d008f54:	11a1000a 	beq	t5,at,9d008f80 <DspecB>
9d008f58:	00000000 	nop
9d008f5c:	1140ffbb 	beqz	t2,9d008e4c <Dret>
9d008f60:	00000000 	nop
9d008f64:	01287825 	or	t7,t1,t0
9d008f68:	15e00023 	bnez	t7,9d008ff8 <Dnan>
9d008f6c:	00000000 	nop

9d008f70 <Dinf>:
9d008f70:	3c017ff0 	lui	at,0x7ff0
9d008f74:	00a12825 	or	a1,a1,at
9d008f78:	1000ffb4 	b	9d008e4c <Dret>
9d008f7c:	24040000 	li	a0,0

9d008f80 <DspecB>:
9d008f80:	0160782a 	slt	t7,t3,zero
9d008f84:	016b5821 	addu	t3,t3,t3
9d008f88:	018c6021 	addu	t4,t4,t4
9d008f8c:	15a00017 	bnez	t5,9d008fec <i36>
9d008f90:	018f6021 	addu	t4,t4,t7
9d008f94:	018b7825 	or	t7,t4,t3
9d008f98:	11e0fff5 	beqz	t7,9d008f70 <Dinf>
9d008f9c:	00000000 	nop
9d008fa0:	15800008 	bnez	t4,9d008fc4 <L39>
9d008fa4:	00000000 	nop
9d008fa8:	15600003 	bnez	t3,9d008fb8 <L40>
9d008fac:	00000000 	nop
9d008fb0:	1000ff00 	b	9d008bb4 <Dlab2>
9d008fb4:	240d0000 	li	t5,0

9d008fb8 <L40>:
9d008fb8:	01606025 	move	t4,t3
9d008fbc:	240b0000 	li	t3,0
9d008fc0:	25adffe0 	addiu	t5,t5,-32

9d008fc4 <L39>:
9d008fc4:	718e7020 	clz	t6,t4
9d008fc8:	11c0fefa 	beqz	t6,9d008bb4 <Dlab2>
9d008fcc:	00000000 	nop
9d008fd0:	01ae6823 	subu	t5,t5,t6
9d008fd4:	000e3022 	neg	a2,t6
9d008fd8:	00cb3006 	srlv	a2,t3,a2
9d008fdc:	01cb5804 	sllv	t3,t3,t6
9d008fe0:	01cc6004 	sllv	t4,t4,t6
9d008fe4:	1000fef3 	b	9d008bb4 <Dlab2>
9d008fe8:	01866025 	or	t4,t4,a2

9d008fec <i36>:
9d008fec:	018b7825 	or	t7,t4,t3
9d008ff0:	11e00002 	beqz	t7,9d008ffc <i38>
9d008ff4:	00000000 	nop

9d008ff8 <Dnan>:
9d008ff8:	3c05fff8 	lui	a1,0xfff8

9d008ffc <i38>:
9d008ffc:	1000ff93 	b	9d008e4c <Dret>
9d009000:	24040000 	li	a0,0
9d009004:	00000000 	nop

Disassembly of section .text.dp32subadd:

9d009008 <__subdf3>:
9d009008:	3c018000 00e13826                       ...<&8..

9d009010 <__adddf3>:
9d009010:	00055840 000b5d42 000552c0 00047d42     @X..B]...R..B}..
9d009020:	014f5025 00044ac0 3c088000 01485025     %PO..J.....<%PH.
9d009030:	00077040 000e7542 00076ac0 00067d42     @p..Bu...j..B}..
9d009040:	01af6825 000662c0 01a86825 256fffff     %h...b..%h....o%
9d009050:	2de107fe 1020008d 00000000              ...-.. .....

9d00905c <Blab1>:
9d00905c:	25cfffff 	addiu	t7,t6,-1
9d009060:	2de107fe 	sltiu	at,t7,2046
9d009064:	102000bb 	beqz	at,9d009354 <BspecB>
9d009068:	00000000 	nop

9d00906c <Blab2>:
9d00906c:	3c018000 	lui	at,0x8000
9d009070:	00a12824 	and	a1,a1,at
9d009074:	016e4023 	subu	t0,t3,t6
9d009078:	1100002c 	beqz	t0,9d00912c <Badd3>
9d00907c:	00000000 	nop
9d009080:	19000015 	blez	t0,9d0090d8 <i1>
9d009084:	00000000 	nop

9d009088 <L1>:
9d009088:	2d010020 	sltiu	at,t0,32
9d00908c:	14200007 	bnez	at,9d0090ac <L2>
9d009090:	00000000 	nop
9d009094:	2108ffe0 	addi	t0,t0,-32
9d009098:	000c302b 	sltu	a2,zero,t4
9d00909c:	100d0023 	beq	zero,t5,9d00912c <Badd3>
9d0090a0:	01a66025 	or	t4,t5,a2
9d0090a4:	1000fff8 	b	9d009088 <L1>
9d0090a8:	340d0000 	li	t5,0x0

9d0090ac <L2>:
9d0090ac:	1100001f 	beqz	t0,9d00912c <Badd3>
9d0090b0:	00000000 	nop
9d0090b4:	00082022 	neg	a0,t0
9d0090b8:	008c3004 	sllv	a2,t4,a0
9d0090bc:	008d2004 	sllv	a0,t5,a0
9d0090c0:	010c6006 	srlv	t4,t4,t0
9d0090c4:	010d6806 	srlv	t5,t5,t0
9d0090c8:	10c00018 	beqz	a2,9d00912c <Badd3>
9d0090cc:	008c6025 	or	t4,a0,t4
9d0090d0:	10000016 	b	9d00912c <Badd3>
9d0090d4:	358c0002 	ori	t4,t4,0x2

9d0090d8 <i1>:
9d0090d8:	000e5825 	or	t3,zero,t6
9d0090dc:	00084023 	negu	t0,t0

9d0090e0 <L4>:
9d0090e0:	2d010020 	sltiu	at,t0,32
9d0090e4:	14200007 	bnez	at,9d009104 <L5>
9d0090e8:	00000000 	nop
9d0090ec:	2108ffe0 	addi	t0,t0,-32
9d0090f0:	0009302b 	sltu	a2,zero,t1
9d0090f4:	100a000d 	beq	zero,t2,9d00912c <Badd3>
9d0090f8:	01464825 	or	t1,t2,a2
9d0090fc:	1000fff8 	b	9d0090e0 <L4>
9d009100:	340a0000 	li	t2,0x0

9d009104 <L5>:
9d009104:	11000009 	beqz	t0,9d00912c <Badd3>
9d009108:	00000000 	nop
9d00910c:	00082022 	neg	a0,t0
9d009110:	00893004 	sllv	a2,t1,a0
9d009114:	008a2004 	sllv	a0,t2,a0
9d009118:	01094806 	srlv	t1,t1,t0
9d00911c:	010a5006 	srlv	t2,t2,t0
9d009120:	10c00002 	beqz	a2,9d00912c <Badd3>
9d009124:	00894825 	or	t1,a0,t1
9d009128:	35290002 	ori	t1,t1,0x2

9d00912c <Badd3>:
9d00912c:	00a77826 	xor	t7,a1,a3
9d009130:	05e0001c 	bltz	t7,9d0091a4 <Bsub1>
9d009134:	00000000 	nop
9d009138:	012c4821 	addu	t1,t1,t4
9d00913c:	012c782b 	sltu	t7,t1,t4
9d009140:	014d5021 	addu	t2,t2,t5
9d009144:	014f5021 	addu	t2,t2,t7
9d009148:	114d0002 	beq	t2,t5,9d009154 <L7>
9d00914c:	00000000 	nop
9d009150:	014d782b 	sltu	t7,t2,t5

9d009154 <L7>:
9d009154:	11e00037 	beqz	t7,9d009234 <Bres>
9d009158:	00000000 	nop
9d00915c:	312f0001 	andi	t7,t1,0x1
9d009160:	11e00002 	beqz	t7,9d00916c <i3>
9d009164:	00000000 	nop
9d009168:	35290002 	ori	t1,t1,0x2

9d00916c <i3>:
9d00916c:	00094842 	srl	t1,t1,0x1
9d009170:	000a7fc0 	sll	t7,t2,0x1f
9d009174:	012f4825 	or	t1,t1,t7
9d009178:	000a5042 	srl	t2,t2,0x1
9d00917c:	3c018000 	lui	at,0x8000
9d009180:	01415025 	or	t2,t2,at
9d009184:	256b0001 	addiu	t3,t3,1
9d009188:	240107ff 	li	at,2047
9d00918c:	15610029 	bne	t3,at,9d009234 <Bres>
9d009190:	00000000 	nop
9d009194:	3c017ff0 	lui	at,0x7ff0
9d009198:	00a12825 	or	a1,a1,at
9d00919c:	10000037 	b	9d00927c <BretA>
9d0091a0:	24040000 	li	a0,0

9d0091a4 <Bsub1>:
9d0091a4:	012c782b 	sltu	t7,t1,t4
9d0091a8:	012c4823 	subu	t1,t1,t4
9d0091ac:	014f102b 	sltu	v0,t2,t7
9d0091b0:	014f5023 	subu	t2,t2,t7
9d0091b4:	014d782b 	sltu	t7,t2,t5
9d0091b8:	01e27825 	or	t7,t7,v0
9d0091bc:	11e00007 	beqz	t7,9d0091dc <i5>
9d0091c0:	014d5023 	subu	t2,t2,t5
9d0091c4:	3c018000 	lui	at,0x8000
9d0091c8:	00a12826 	xor	a1,a1,at
9d0091cc:	0009782b 	sltu	t7,zero,t1
9d0091d0:	00094823 	negu	t1,t1
9d0091d4:	000a5023 	negu	t2,t2
9d0091d8:	014f5023 	subu	t2,t2,t7

9d0091dc <i5>:
9d0091dc:	15400008 	bnez	t2,9d009200 <L8>
9d0091e0:	00000000 	nop
9d0091e4:	15200003 	bnez	t1,9d0091f4 <L9>
9d0091e8:	00000000 	nop
9d0091ec:	1000000d 	b	9d009224 <L10>
9d0091f0:	240b0000 	li	t3,0

9d0091f4 <L9>:
9d0091f4:	01205025 	move	t2,t1
9d0091f8:	24090000 	li	t1,0
9d0091fc:	256bffe0 	addiu	t3,t3,-32

9d009200 <L8>:
9d009200:	71484020 	clz	t0,t2
9d009204:	11000007 	beqz	t0,9d009224 <L10>
9d009208:	00000000 	nop
9d00920c:	01685823 	subu	t3,t3,t0
9d009210:	00082022 	neg	a0,t0
9d009214:	00892006 	srlv	a0,t1,a0
9d009218:	01094804 	sllv	t1,t1,t0
9d00921c:	010a5004 	sllv	t2,t2,t0
9d009220:	01445025 	or	t2,t2,a0

9d009224 <L10>:
9d009224:	01497825 	or	t7,t2,t1
9d009228:	15e00002 	bnez	t7,9d009234 <Bres>
9d00922c:	00000000 	nop
9d009230:	24050000 	li	a1,0

9d009234 <Bres>:
9d009234:	19600068 	blez	t3,9d0093d8 <Bund>
9d009238:	00000000 	nop

9d00923c <Blab8>:
9d00923c:	25290400 	addiu	t1,t1,1024
9d009240:	2d2f0400 	sltiu	t7,t1,1024
9d009244:	014f5021 	addu	t2,t2,t7
9d009248:	014f782b 	sltu	t7,t2,t7
9d00924c:	016f5821 	addu	t3,t3,t7
9d009250:	00097ac2 	srl	t7,t1,0xb
9d009254:	31ef0001 	andi	t7,t7,0x1
9d009258:	012f4823 	subu	t1,t1,t7
9d00925c:	000922c2 	srl	a0,t1,0xb
9d009260:	000a7d40 	sll	t7,t2,0x15
9d009264:	008f2025 	or	a0,a0,t7
9d009268:	000a7840 	sll	t7,t2,0x1
9d00926c:	000f7b02 	srl	t7,t7,0xc
9d009270:	00af2825 	or	a1,a1,t7
9d009274:	000b7d00 	sll	t7,t3,0x14
9d009278:	00af2825 	or	a1,a1,t7

9d00927c <BretA>:
9d00927c:	00041025 	or	v0,zero,a0
9d009280:	00051825 	or	v1,zero,a1

9d009284 <B999>:
9d009284:	03e00008 	jr	ra
9d009288:	00000000 	nop

9d00928c <BspecA>:
9d00928c:	0120782a 	slt	t7,t1,zero
9d009290:	01294821 	addu	t1,t1,t1
9d009294:	014a5021 	addu	t2,t2,t2
9d009298:	15600023 	bnez	t3,9d009328 <i7>
9d00929c:	014f5021 	addu	t2,t2,t7
9d0092a0:	01497825 	or	t7,t2,t1
9d0092a4:	11e00014 	beqz	t7,9d0092f8 <i8>
9d0092a8:	00000000 	nop
9d0092ac:	15400008 	bnez	t2,9d0092d0 <L11>
9d0092b0:	00000000 	nop
9d0092b4:	15200003 	bnez	t1,9d0092c4 <L12>
9d0092b8:	00000000 	nop
9d0092bc:	1000ff67 	b	9d00905c <Blab1>
9d0092c0:	240b0000 	li	t3,0

9d0092c4 <L12>:
9d0092c4:	01205025 	move	t2,t1
9d0092c8:	24090000 	li	t1,0
9d0092cc:	256bffe0 	addiu	t3,t3,-32

9d0092d0 <L11>:
9d0092d0:	71484020 	clz	t0,t2
9d0092d4:	1100ff61 	beqz	t0,9d00905c <Blab1>
9d0092d8:	00000000 	nop
9d0092dc:	01685823 	subu	t3,t3,t0
9d0092e0:	00082022 	neg	a0,t0
9d0092e4:	00892006 	srlv	a0,t1,a0
9d0092e8:	01094804 	sllv	t1,t1,t0
9d0092ec:	010a5004 	sllv	t2,t2,t0
9d0092f0:	1000ff5a 	b	9d00905c <Blab1>
9d0092f4:	01445025 	or	t2,t2,a0

9d0092f8 <i8>:
9d0092f8:	240107ff 	li	at,2047
9d0092fc:	11c10015 	beq	t6,at,9d009354 <BspecB>
9d009300:	00000000 	nop
9d009304:	00e74021 	addu	t0,a3,a3
9d009308:	01067825 	or	t7,t0,a2
9d00930c:	15e00003 	bnez	t7,9d00931c <BretB>
9d009310:	00000000 	nop
9d009314:	04e0ffd9 	bltz	a3,9d00927c <BretA>
9d009318:	00000000 	nop

9d00931c <BretB>:
9d00931c:	00061025 	or	v0,zero,a2
9d009320:	1000ffd8 	b	9d009284 <B999>
9d009324:	00071825 	or	v1,zero,a3

9d009328 <i7>:
9d009328:	01497825 	or	t7,t2,t1
9d00932c:	15e00027 	bnez	t7,9d0093cc <Bnan>
9d009330:	00000000 	nop
9d009334:	240107ff 	li	at,2047
9d009338:	15c1ffd0 	bne	t6,at,9d00927c <BretA>
9d00933c:	00000000 	nop
9d009340:	00a77826 	xor	t7,a1,a3
9d009344:	05e00021 	bltz	t7,9d0093cc <Bnan>
9d009348:	00000000 	nop
9d00934c:	1000fff3 	b	9d00931c <BretB>
9d009350:	00000000 	nop

9d009354 <BspecB>:
9d009354:	0180782a 	slt	t7,t4,zero
9d009358:	018c6021 	addu	t4,t4,t4
9d00935c:	01ad6821 	addu	t5,t5,t5
9d009360:	15c00017 	bnez	t6,9d0093c0 <i11>
9d009364:	01af6821 	addu	t5,t5,t7
9d009368:	01ac7825 	or	t7,t5,t4
9d00936c:	11e0ffc3 	beqz	t7,9d00927c <BretA>
9d009370:	00000000 	nop
9d009374:	15a00008 	bnez	t5,9d009398 <L14>
9d009378:	00000000 	nop
9d00937c:	15800003 	bnez	t4,9d00938c <L15>
9d009380:	00000000 	nop
9d009384:	1000ff39 	b	9d00906c <Blab2>
9d009388:	240e0000 	li	t6,0

9d00938c <L15>:
9d00938c:	01806825 	move	t5,t4
9d009390:	240c0000 	li	t4,0
9d009394:	25ceffe0 	addiu	t6,t6,-32

9d009398 <L14>:
9d009398:	71a84020 	clz	t0,t5
9d00939c:	1100ff33 	beqz	t0,9d00906c <Blab2>
9d0093a0:	00000000 	nop
9d0093a4:	01c87023 	subu	t6,t6,t0
9d0093a8:	00082022 	neg	a0,t0
9d0093ac:	008c2006 	srlv	a0,t4,a0
9d0093b0:	010c6004 	sllv	t4,t4,t0
9d0093b4:	010d6804 	sllv	t5,t5,t0
9d0093b8:	1000ff2c 	b	9d00906c <Blab2>
9d0093bc:	01a46825 	or	t5,t5,a0

9d0093c0 <i11>:
9d0093c0:	01ac7825 	or	t7,t5,t4
9d0093c4:	11e0ffd5 	beqz	t7,9d00931c <BretB>
9d0093c8:	00000000 	nop

9d0093cc <Bnan>:
9d0093cc:	3c05fff8 	lui	a1,0xfff8
9d0093d0:	1000ffaa 	b	9d00927c <BretA>
9d0093d4:	24040000 	li	a0,0

9d0093d8 <Bund>:
9d0093d8:	24080001 	li	t0,1
9d0093dc:	010b4023 	subu	t0,t0,t3

9d0093e0 <L17>:
9d0093e0:	2d010020 	sltiu	at,t0,32
9d0093e4:	14200007 	bnez	at,9d009404 <L18>
9d0093e8:	00000000 	nop
9d0093ec:	2108ffe0 	addi	t0,t0,-32
9d0093f0:	0009302b 	sltu	a2,zero,t1
9d0093f4:	100a000d 	beq	zero,t2,9d00942c <L19>
9d0093f8:	01464825 	or	t1,t2,a2
9d0093fc:	1000fff8 	b	9d0093e0 <L17>
9d009400:	340a0000 	li	t2,0x0

9d009404 <L18>:
9d009404:	11000009 	beqz	t0,9d00942c <L19>
9d009408:	00000000 	nop
9d00940c:	00082022 	neg	a0,t0
9d009410:	00893004 	sllv	a2,t1,a0
9d009414:	008a2004 	sllv	a0,t2,a0
9d009418:	01094806 	srlv	t1,t1,t0
9d00941c:	010a5006 	srlv	t2,t2,t0
9d009420:	10c00002 	beqz	a2,9d00942c <L19>
9d009424:	00894825 	or	t1,a0,t1
9d009428:	35290002 	ori	t1,t1,0x2

9d00942c <L19>:
9d00942c:	1000ff83 	b	9d00923c <Blab8>
9d009430:	240b0000 	li	t3,0
9d009434:	00000000 	nop

Disassembly of section .text:

9d009438 <__udivdi3>:
9d009438:	00c04025 	move	t0,a2
9d00943c:	00e01825 	move	v1,a3
9d009440:	00805025 	move	t2,a0
9d009444:	14e00098 	bnez	a3,9d0096a8 <__udivdi3+0x270>
9d009448:	00a01025 	move	v0,a1
9d00944c:	00a6302b 	sltu	a2,a1,a2
9d009450:	10c00035 	beqz	a2,9d009528 <__udivdi3+0xf0>
9d009454:	00000000 	nop
9d009458:	71052820 	clz	a1,t0
9d00945c:	10a00006 	beqz	a1,9d009478 <__udivdi3+0x40>
9d009460:	00052023 	negu	a0,a1
9d009464:	008a2006 	srlv	a0,t2,a0
9d009468:	00a21004 	sllv	v0,v0,a1
9d00946c:	00a84004 	sllv	t0,t0,a1
9d009470:	00821025 	or	v0,a0,v0
9d009474:	00aa5004 	sllv	t2,t2,a1
9d009478:	00083402 	srl	a2,t0,0x10
9d00947c:	0046001b 	divu	zero,v0,a2
9d009480:	00c001f4 	teq	a2,zero,0x7
9d009484:	3105ffff 	andi	a1,t0,0xffff
9d009488:	000a2402 	srl	a0,t2,0x10
9d00948c:	00003812 	mflo	a3
9d009490:	00001010 	mfhi	v0
9d009494:	00021400 	sll	v0,v0,0x10
9d009498:	00442025 	or	a0,v0,a0
9d00949c:	70a74802 	mul	t1,a1,a3
9d0094a0:	0089582b 	sltu	t3,a0,t1
9d0094a4:	1160000a 	beqz	t3,9d0094d0 <__udivdi3+0x98>
9d0094a8:	00e01025 	move	v0,a3
9d0094ac:	00882021 	addu	a0,a0,t0
9d0094b0:	0088582b 	sltu	t3,a0,t0
9d0094b4:	15600006 	bnez	t3,9d0094d0 <__udivdi3+0x98>
9d0094b8:	24e2ffff 	addiu	v0,a3,-1
9d0094bc:	0089582b 	sltu	t3,a0,t1
9d0094c0:	51600004 	beqzl	t3,9d0094d4 <__udivdi3+0x9c>
9d0094c4:	00892023 	subu	a0,a0,t1
9d0094c8:	24e2fffe 	addiu	v0,a3,-2
9d0094cc:	00882021 	addu	a0,a0,t0
9d0094d0:	00892023 	subu	a0,a0,t1
9d0094d4:	0086001b 	divu	zero,a0,a2
9d0094d8:	00c001f4 	teq	a2,zero,0x7
9d0094dc:	00003010 	mfhi	a2
9d0094e0:	00063400 	sll	a2,a2,0x10
9d0094e4:	00002012 	mflo	a0
9d0094e8:	70a43802 	mul	a3,a1,a0
9d0094ec:	3145ffff 	andi	a1,t2,0xffff
9d0094f0:	00c52825 	or	a1,a2,a1
9d0094f4:	00a7482b 	sltu	t1,a1,a3
9d0094f8:	11200008 	beqz	t1,9d00951c <__udivdi3+0xe4>
9d0094fc:	00803025 	move	a2,a0
9d009500:	01052821 	addu	a1,t0,a1
9d009504:	00a8402b 	sltu	t0,a1,t0
9d009508:	15000004 	bnez	t0,9d00951c <__udivdi3+0xe4>
9d00950c:	2486ffff 	addiu	a2,a0,-1
9d009510:	00a7282b 	sltu	a1,a1,a3
9d009514:	54a00001 	bnezl	a1,9d00951c <__udivdi3+0xe4>
9d009518:	2486fffe 	addiu	a2,a0,-2
9d00951c:	00021400 	sll	v0,v0,0x10
9d009520:	03e00008 	jr	ra
9d009524:	00461025 	or	v0,v0,a2
9d009528:	15000004 	bnez	t0,9d00953c <__udivdi3+0x104>
9d00952c:	24020001 	li	v0,1
9d009530:	0048001b 	divu	zero,v0,t0
9d009534:	010001f4 	teq	t0,zero,0x7
9d009538:	00004012 	mflo	t0
9d00953c:	710b5820 	clz	t3,t0
9d009540:	15600023 	bnez	t3,9d0095d0 <__udivdi3+0x198>
9d009544:	24070020 	li	a3,32
9d009548:	00a82823 	subu	a1,a1,t0
9d00954c:	24030001 	li	v1,1
9d009550:	00083402 	srl	a2,t0,0x10
9d009554:	00a6001b 	divu	zero,a1,a2
9d009558:	00c001f4 	teq	a2,zero,0x7
9d00955c:	3107ffff 	andi	a3,t0,0xffff
9d009560:	000a2402 	srl	a0,t2,0x10
9d009564:	00002812 	mflo	a1
9d009568:	00001010 	mfhi	v0
9d00956c:	00021400 	sll	v0,v0,0x10
9d009570:	00442025 	or	a0,v0,a0
9d009574:	70e54802 	mul	t1,a3,a1
9d009578:	0089582b 	sltu	t3,a0,t1
9d00957c:	1160000a 	beqz	t3,9d0095a8 <__udivdi3+0x170>
9d009580:	00a01025 	move	v0,a1
9d009584:	00882021 	addu	a0,a0,t0
9d009588:	0088582b 	sltu	t3,a0,t0
9d00958c:	15600006 	bnez	t3,9d0095a8 <__udivdi3+0x170>
9d009590:	24a2ffff 	addiu	v0,a1,-1
9d009594:	0089582b 	sltu	t3,a0,t1
9d009598:	51600004 	beqzl	t3,9d0095ac <__udivdi3+0x174>
9d00959c:	00892023 	subu	a0,a0,t1
9d0095a0:	24a2fffe 	addiu	v0,a1,-2
9d0095a4:	00882021 	addu	a0,a0,t0
9d0095a8:	00892023 	subu	a0,a0,t1
9d0095ac:	0086001b 	divu	zero,a0,a2
9d0095b0:	00c001f4 	teq	a2,zero,0x7
9d0095b4:	314affff 	andi	t2,t2,0xffff
9d0095b8:	00002810 	mfhi	a1
9d0095bc:	00052c00 	sll	a1,a1,0x10
9d0095c0:	00aa2825 	or	a1,a1,t2
9d0095c4:	00002012 	mflo	a0
9d0095c8:	1000ffca 	b	9d0094f4 <__udivdi3+0xbc>
9d0095cc:	70e43802 	mul	a3,a3,a0
9d0095d0:	00eb3823 	subu	a3,a3,t3
9d0095d4:	01684004 	sllv	t0,t0,t3
9d0095d8:	00e44806 	srlv	t1,a0,a3
9d0095dc:	00083402 	srl	a2,t0,0x10
9d0095e0:	00e53806 	srlv	a3,a1,a3
9d0095e4:	00e6001b 	divu	zero,a3,a2
9d0095e8:	00c001f4 	teq	a2,zero,0x7
9d0095ec:	01651004 	sllv	v0,a1,t3
9d0095f0:	01224825 	or	t1,t1,v0
9d0095f4:	3102ffff 	andi	v0,t0,0xffff
9d0095f8:	00091c02 	srl	v1,t1,0x10
9d0095fc:	00002812 	mflo	a1
9d009600:	00003810 	mfhi	a3
9d009604:	00073c00 	sll	a3,a3,0x10
9d009608:	00e33825 	or	a3,a3,v1
9d00960c:	70455002 	mul	t2,v0,a1
9d009610:	00ea602b 	sltu	t4,a3,t2
9d009614:	1180000a 	beqz	t4,9d009640 <__udivdi3+0x208>
9d009618:	00a01825 	move	v1,a1
9d00961c:	00e83821 	addu	a3,a3,t0
9d009620:	00e8602b 	sltu	t4,a3,t0
9d009624:	15800006 	bnez	t4,9d009640 <__udivdi3+0x208>
9d009628:	24a3ffff 	addiu	v1,a1,-1
9d00962c:	00ea602b 	sltu	t4,a3,t2
9d009630:	51800004 	beqzl	t4,9d009644 <__udivdi3+0x20c>
9d009634:	00ea3823 	subu	a3,a3,t2
9d009638:	24a3fffe 	addiu	v1,a1,-2
9d00963c:	00e83821 	addu	a3,a3,t0
9d009640:	00ea3823 	subu	a3,a3,t2
9d009644:	00e6001b 	divu	zero,a3,a2
9d009648:	00c001f4 	teq	a2,zero,0x7
9d00964c:	3125ffff 	andi	a1,t1,0xffff
9d009650:	00003012 	mflo	a2
9d009654:	00003810 	mfhi	a3
9d009658:	00073c00 	sll	a3,a3,0x10
9d00965c:	00e52825 	or	a1,a3,a1
9d009660:	70461002 	mul	v0,v0,a2
9d009664:	00a2482b 	sltu	t1,a1,v0
9d009668:	1120000a 	beqz	t1,9d009694 <__udivdi3+0x25c>
9d00966c:	00c03825 	move	a3,a2
9d009670:	00a82821 	addu	a1,a1,t0
9d009674:	00a8482b 	sltu	t1,a1,t0
9d009678:	15200006 	bnez	t1,9d009694 <__udivdi3+0x25c>
9d00967c:	24c7ffff 	addiu	a3,a2,-1
9d009680:	00a2482b 	sltu	t1,a1,v0
9d009684:	51200004 	beqzl	t1,9d009698 <__udivdi3+0x260>
9d009688:	00031c00 	sll	v1,v1,0x10
9d00968c:	24c7fffe 	addiu	a3,a2,-2
9d009690:	00a82821 	addu	a1,a1,t0
9d009694:	00031c00 	sll	v1,v1,0x10
9d009698:	01645004 	sllv	t2,a0,t3
9d00969c:	00a22823 	subu	a1,a1,v0
9d0096a0:	1000ffab 	b	9d009550 <__udivdi3+0x118>
9d0096a4:	00671825 	or	v1,v1,a3
9d0096a8:	00a7402b 	sltu	t0,a1,a3
9d0096ac:	00001825 	move	v1,zero
9d0096b0:	1500004e 	bnez	t0,9d0097ec <__udivdi3+0x3b4>
9d0096b4:	00001025 	move	v0,zero
9d0096b8:	70ea5020 	clz	t2,a3
9d0096bc:	15400007 	bnez	t2,9d0096dc <__udivdi3+0x2a4>
9d0096c0:	24090020 	li	t1,32
9d0096c4:	00e5282b 	sltu	a1,a3,a1
9d0096c8:	14a00048 	bnez	a1,9d0097ec <__udivdi3+0x3b4>
9d0096cc:	24020001 	li	v0,1
9d0096d0:	0086102b 	sltu	v0,a0,a2
9d0096d4:	03e00008 	jr	ra
9d0096d8:	38420001 	xori	v0,v0,0x1
9d0096dc:	012a4823 	subu	t1,t1,t2
9d0096e0:	01261006 	srlv	v0,a2,t1
9d0096e4:	01473804 	sllv	a3,a3,t2
9d0096e8:	00473825 	or	a3,v0,a3
9d0096ec:	01451804 	sllv	v1,a1,t2
9d0096f0:	00074402 	srl	t0,a3,0x10
9d0096f4:	01252806 	srlv	a1,a1,t1
9d0096f8:	00a8001b 	divu	zero,a1,t0
9d0096fc:	010001f4 	teq	t0,zero,0x7
9d009700:	30ebffff 	andi	t3,a3,0xffff
9d009704:	01241006 	srlv	v0,a0,t1
9d009708:	00431025 	or	v0,v0,v1
9d00970c:	00021c02 	srl	v1,v0,0x10
9d009710:	00002812 	mflo	a1
9d009714:	00004810 	mfhi	t1
9d009718:	00094c00 	sll	t1,t1,0x10
9d00971c:	01234825 	or	t1,t1,v1
9d009720:	71656002 	mul	t4,t3,a1
9d009724:	012c682b 	sltu	t5,t1,t4
9d009728:	11a0000a 	beqz	t5,9d009754 <__udivdi3+0x31c>
9d00972c:	00a01825 	move	v1,a1
9d009730:	01274821 	addu	t1,t1,a3
9d009734:	0127682b 	sltu	t5,t1,a3
9d009738:	15a00006 	bnez	t5,9d009754 <__udivdi3+0x31c>
9d00973c:	24a3ffff 	addiu	v1,a1,-1
9d009740:	012c682b 	sltu	t5,t1,t4
9d009744:	51a00004 	beqzl	t5,9d009758 <__udivdi3+0x320>
9d009748:	012c4823 	subu	t1,t1,t4
9d00974c:	24a3fffe 	addiu	v1,a1,-2
9d009750:	01274821 	addu	t1,t1,a3
9d009754:	012c4823 	subu	t1,t1,t4
9d009758:	0128001b 	divu	zero,t1,t0
9d00975c:	010001f4 	teq	t0,zero,0x7
9d009760:	3045ffff 	andi	a1,v0,0xffff
9d009764:	00004012 	mflo	t0
9d009768:	00004810 	mfhi	t1
9d00976c:	00094c00 	sll	t1,t1,0x10
9d009770:	01252825 	or	a1,t1,a1
9d009774:	71685802 	mul	t3,t3,t0
9d009778:	00ab102b 	sltu	v0,a1,t3
9d00977c:	1040000a 	beqz	v0,9d0097a8 <__udivdi3+0x370>
9d009780:	01004825 	move	t1,t0
9d009784:	00a72821 	addu	a1,a1,a3
9d009788:	00a7102b 	sltu	v0,a1,a3
9d00978c:	14400006 	bnez	v0,9d0097a8 <__udivdi3+0x370>
9d009790:	2509ffff 	addiu	t1,t0,-1
9d009794:	00ab102b 	sltu	v0,a1,t3
9d009798:	10400004 	beqz	v0,9d0097ac <__udivdi3+0x374>
9d00979c:	00031400 	sll	v0,v1,0x10
9d0097a0:	2509fffe 	addiu	t1,t0,-2
9d0097a4:	00a72821 	addu	a1,a1,a3
9d0097a8:	00031400 	sll	v0,v1,0x10
9d0097ac:	01463004 	sllv	a2,a2,t2
9d0097b0:	00491025 	or	v0,v0,t1
9d0097b4:	00c20019 	multu	a2,v0
9d0097b8:	00ab2823 	subu	a1,a1,t3
9d0097bc:	00003810 	mfhi	a3
9d0097c0:	00a7182b 	sltu	v1,a1,a3
9d0097c4:	14600007 	bnez	v1,9d0097e4 <__udivdi3+0x3ac>
9d0097c8:	00003012 	mflo	a2
9d0097cc:	14a70007 	bne	a1,a3,9d0097ec <__udivdi3+0x3b4>
9d0097d0:	00001825 	move	v1,zero
9d0097d4:	01442004 	sllv	a0,a0,t2
9d0097d8:	0086202b 	sltu	a0,a0,a2
9d0097dc:	10800003 	beqz	a0,9d0097ec <__udivdi3+0x3b4>
9d0097e0:	00000000 	nop
9d0097e4:	2442ffff 	addiu	v0,v0,-1
9d0097e8:	00001825 	move	v1,zero
9d0097ec:	03e00008 	jr	ra
9d0097f0:	00000000 	nop

9d0097f4 <__umoddi3>:
9d0097f4:	00c04825 	move	t1,a2
9d0097f8:	00801025 	move	v0,a0
9d0097fc:	14e0008b 	bnez	a3,9d009a2c <__umoddi3+0x238>
9d009800:	00a01825 	move	v1,a1
9d009804:	00a6302b 	sltu	a2,a1,a2
9d009808:	10c00033 	beqz	a2,9d0098d8 <__umoddi3+0xe4>
9d00980c:	712a5020 	clz	t2,t1
9d009810:	11400008 	beqz	t2,9d009834 <__umoddi3+0x40>
9d009814:	00095c02 	srl	t3,t1,0x10
9d009818:	01451804 	sllv	v1,a1,t2
9d00981c:	000a2823 	negu	a1,t2
9d009820:	00a42806 	srlv	a1,a0,a1
9d009824:	01494804 	sllv	t1,t1,t2
9d009828:	00a31825 	or	v1,a1,v1
9d00982c:	01441004 	sllv	v0,a0,t2
9d009830:	00095c02 	srl	t3,t1,0x10
9d009834:	006b001b 	divu	zero,v1,t3
9d009838:	016001f4 	teq	t3,zero,0x7
9d00983c:	3124ffff 	andi	a0,t1,0xffff
9d009840:	00001812 	mflo	v1
9d009844:	00002810 	mfhi	a1
9d009848:	70643002 	mul	a2,v1,a0
9d00984c:	00051c00 	sll	v1,a1,0x10
9d009850:	00022c02 	srl	a1,v0,0x10
9d009854:	00651825 	or	v1,v1,a1
9d009858:	0066282b 	sltu	a1,v1,a2
9d00985c:	50a00008 	beqzl	a1,9d009880 <__umoddi3+0x8c>
9d009860:	00661823 	subu	v1,v1,a2
9d009864:	00691821 	addu	v1,v1,t1
9d009868:	0069282b 	sltu	a1,v1,t1
9d00986c:	14a00003 	bnez	a1,9d00987c <__umoddi3+0x88>
9d009870:	0066282b 	sltu	a1,v1,a2
9d009874:	54a00001 	bnezl	a1,9d00987c <__umoddi3+0x88>
9d009878:	00691821 	addu	v1,v1,t1
9d00987c:	00661823 	subu	v1,v1,a2
9d009880:	006b001b 	divu	zero,v1,t3
9d009884:	016001f4 	teq	t3,zero,0x7
9d009888:	3042ffff 	andi	v0,v0,0xffff
9d00988c:	00003010 	mfhi	a2
9d009890:	00001812 	mflo	v1
9d009894:	70645802 	mul	t3,v1,a0
9d009898:	00061c00 	sll	v1,a2,0x10
9d00989c:	00621025 	or	v0,v1,v0
9d0098a0:	004b182b 	sltu	v1,v0,t3
9d0098a4:	50600009 	beqzl	v1,9d0098cc <__umoddi3+0xd8>
9d0098a8:	004b1023 	subu	v0,v0,t3
9d0098ac:	00491021 	addu	v0,v0,t1
9d0098b0:	0049182b 	sltu	v1,v0,t1
9d0098b4:	54600005 	bnezl	v1,9d0098cc <__umoddi3+0xd8>
9d0098b8:	004b1023 	subu	v0,v0,t3
9d0098bc:	004b182b 	sltu	v1,v0,t3
9d0098c0:	54600001 	bnezl	v1,9d0098c8 <__umoddi3+0xd4>
9d0098c4:	00491021 	addu	v0,v0,t1
9d0098c8:	004b1023 	subu	v0,v0,t3
9d0098cc:	01421006 	srlv	v0,v0,t2
9d0098d0:	03e00008 	jr	ra
9d0098d4:	00001825 	move	v1,zero
9d0098d8:	15200004 	bnez	t1,9d0098ec <__umoddi3+0xf8>
9d0098dc:	24030001 	li	v1,1
9d0098e0:	0069001b 	divu	zero,v1,t1
9d0098e4:	012001f4 	teq	t1,zero,0x7
9d0098e8:	00004812 	mflo	t1
9d0098ec:	712a5020 	clz	t2,t1
9d0098f0:	1540001f 	bnez	t2,9d009970 <__umoddi3+0x17c>
9d0098f4:	24070020 	li	a3,32
9d0098f8:	00a92823 	subu	a1,a1,t1
9d0098fc:	00095c02 	srl	t3,t1,0x10
9d009900:	00ab001b 	divu	zero,a1,t3
9d009904:	016001f4 	teq	t3,zero,0x7
9d009908:	3124ffff 	andi	a0,t1,0xffff
9d00990c:	00002812 	mflo	a1
9d009910:	00001810 	mfhi	v1
9d009914:	70a43002 	mul	a2,a1,a0
9d009918:	00032c00 	sll	a1,v1,0x10
9d00991c:	00021c02 	srl	v1,v0,0x10
9d009920:	00a32825 	or	a1,a1,v1
9d009924:	00a6182b 	sltu	v1,a1,a2
9d009928:	50600008 	beqzl	v1,9d00994c <__umoddi3+0x158>
9d00992c:	00a63023 	subu	a2,a1,a2
9d009930:	00a92821 	addu	a1,a1,t1
9d009934:	00a9182b 	sltu	v1,a1,t1
9d009938:	14600003 	bnez	v1,9d009948 <__umoddi3+0x154>
9d00993c:	00a6182b 	sltu	v1,a1,a2
9d009940:	54600001 	bnezl	v1,9d009948 <__umoddi3+0x154>
9d009944:	00a92821 	addu	a1,a1,t1
9d009948:	00a63023 	subu	a2,a1,a2
9d00994c:	00cb001b 	divu	zero,a2,t3
9d009950:	016001f4 	teq	t3,zero,0x7
9d009954:	3042ffff 	andi	v0,v0,0xffff
9d009958:	00002810 	mfhi	a1
9d00995c:	00003012 	mflo	a2
9d009960:	70c45802 	mul	t3,a2,a0
9d009964:	00053400 	sll	a2,a1,0x10
9d009968:	1000ffcd 	b	9d0098a0 <__umoddi3+0xac>
9d00996c:	00c21025 	or	v0,a2,v0
9d009970:	00ea3823 	subu	a3,a3,t2
9d009974:	01494804 	sllv	t1,t1,t2
9d009978:	00e41806 	srlv	v1,a0,a3
9d00997c:	00093402 	srl	a2,t1,0x10
9d009980:	00e53806 	srlv	a3,a1,a3
9d009984:	00e6001b 	divu	zero,a3,a2
9d009988:	00c001f4 	teq	a2,zero,0x7
9d00998c:	01451004 	sllv	v0,a1,t2
9d009990:	3128ffff 	andi	t0,t1,0xffff
9d009994:	00621825 	or	v1,v1,v0
9d009998:	00032c02 	srl	a1,v1,0x10
9d00999c:	00003812 	mflo	a3
9d0099a0:	00006010 	mfhi	t4
9d0099a4:	70e81002 	mul	v0,a3,t0
9d0099a8:	000c3c00 	sll	a3,t4,0x10
9d0099ac:	00e53825 	or	a3,a3,a1
9d0099b0:	00e2282b 	sltu	a1,a3,v0
9d0099b4:	50a00008 	beqzl	a1,9d0099d8 <__umoddi3+0x1e4>
9d0099b8:	00e23823 	subu	a3,a3,v0
9d0099bc:	00e93821 	addu	a3,a3,t1
9d0099c0:	00e9282b 	sltu	a1,a3,t1
9d0099c4:	14a00003 	bnez	a1,9d0099d4 <__umoddi3+0x1e0>
9d0099c8:	00e2282b 	sltu	a1,a3,v0
9d0099cc:	54a00001 	bnezl	a1,9d0099d4 <__umoddi3+0x1e0>
9d0099d0:	00e93821 	addu	a3,a3,t1
9d0099d4:	00e23823 	subu	a3,a3,v0
9d0099d8:	00e6001b 	divu	zero,a3,a2
9d0099dc:	00c001f4 	teq	a2,zero,0x7
9d0099e0:	3065ffff 	andi	a1,v1,0xffff
9d0099e4:	00003012 	mflo	a2
9d0099e8:	00003810 	mfhi	a3
9d0099ec:	00073c00 	sll	a3,a3,0x10
9d0099f0:	00e52825 	or	a1,a3,a1
9d0099f4:	70c83002 	mul	a2,a2,t0
9d0099f8:	00a6102b 	sltu	v0,a1,a2
9d0099fc:	10400009 	beqz	v0,9d009a24 <__umoddi3+0x230>
9d009a00:	01441004 	sllv	v0,a0,t2
9d009a04:	00a92821 	addu	a1,a1,t1
9d009a08:	00a9102b 	sltu	v0,a1,t1
9d009a0c:	14400005 	bnez	v0,9d009a24 <__umoddi3+0x230>
9d009a10:	01441004 	sllv	v0,a0,t2
9d009a14:	00a6102b 	sltu	v0,a1,a2
9d009a18:	54400001 	bnezl	v0,9d009a20 <__umoddi3+0x22c>
9d009a1c:	00a92821 	addu	a1,a1,t1
9d009a20:	01441004 	sllv	v0,a0,t2
9d009a24:	1000ffb5 	b	9d0098fc <__umoddi3+0x108>
9d009a28:	00a62823 	subu	a1,a1,a2
9d009a2c:	00a7402b 	sltu	t0,a1,a3
9d009a30:	1500005c 	bnez	t0,9d009ba4 <__umoddi3+0x3b0>
9d009a34:	70ee7020 	clz	t6,a3
9d009a38:	15c0000a 	bnez	t6,9d009a64 <__umoddi3+0x270>
9d009a3c:	00e5402b 	sltu	t0,a3,a1
9d009a40:	15000003 	bnez	t0,9d009a50 <__umoddi3+0x25c>
9d009a44:	0086402b 	sltu	t0,a0,a2
9d009a48:	15000056 	bnez	t0,9d009ba4 <__umoddi3+0x3b0>
9d009a4c:	00000000 	nop
9d009a50:	00861023 	subu	v0,a0,a2
9d009a54:	00a72823 	subu	a1,a1,a3
9d009a58:	0082182b 	sltu	v1,a0,v0
9d009a5c:	03e00008 	jr	ra
9d009a60:	00a31823 	subu	v1,a1,v1
9d009a64:	240b0020 	li	t3,32
9d009a68:	016e5823 	subu	t3,t3,t6
9d009a6c:	01666006 	srlv	t4,a2,t3
9d009a70:	01c73804 	sllv	a3,a3,t6
9d009a74:	01873825 	or	a3,t4,a3
9d009a78:	01c54004 	sllv	t0,a1,t6
9d009a7c:	00074c02 	srl	t1,a3,0x10
9d009a80:	01652806 	srlv	a1,a1,t3
9d009a84:	00a9001b 	divu	zero,a1,t1
9d009a88:	012001f4 	teq	t1,zero,0x7
9d009a8c:	01641006 	srlv	v0,a0,t3
9d009a90:	00481025 	or	v0,v0,t0
9d009a94:	30e8ffff 	andi	t0,a3,0xffff
9d009a98:	00026402 	srl	t4,v0,0x10
9d009a9c:	00002812 	mflo	a1
9d009aa0:	00005010 	mfhi	t2
9d009aa4:	000a5400 	sll	t2,t2,0x10
9d009aa8:	014c5025 	or	t2,t2,t4
9d009aac:	71051802 	mul	v1,t0,a1
9d009ab0:	0143602b 	sltu	t4,t2,v1
9d009ab4:	1180000a 	beqz	t4,9d009ae0 <__umoddi3+0x2ec>
9d009ab8:	00a06825 	move	t5,a1
9d009abc:	01475021 	addu	t2,t2,a3
9d009ac0:	0147602b 	sltu	t4,t2,a3
9d009ac4:	15800006 	bnez	t4,9d009ae0 <__umoddi3+0x2ec>
9d009ac8:	24adffff 	addiu	t5,a1,-1
9d009acc:	0143602b 	sltu	t4,t2,v1
9d009ad0:	51800004 	beqzl	t4,9d009ae4 <__umoddi3+0x2f0>
9d009ad4:	01435023 	subu	t2,t2,v1
9d009ad8:	24adfffe 	addiu	t5,a1,-2
9d009adc:	01475021 	addu	t2,t2,a3
9d009ae0:	01435023 	subu	t2,t2,v1
9d009ae4:	0149001b 	divu	zero,t2,t1
9d009ae8:	012001f4 	teq	t1,zero,0x7
9d009aec:	00004812 	mflo	t1
9d009af0:	00005010 	mfhi	t2
9d009af4:	000a5400 	sll	t2,t2,0x10
9d009af8:	71092802 	mul	a1,t0,t1
9d009afc:	3048ffff 	andi	t0,v0,0xffff
9d009b00:	01484025 	or	t0,t2,t0
9d009b04:	0105102b 	sltu	v0,t0,a1
9d009b08:	1040000a 	beqz	v0,9d009b34 <__umoddi3+0x340>
9d009b0c:	01205025 	move	t2,t1
9d009b10:	01074021 	addu	t0,t0,a3
9d009b14:	0107102b 	sltu	v0,t0,a3
9d009b18:	14400006 	bnez	v0,9d009b34 <__umoddi3+0x340>
9d009b1c:	252affff 	addiu	t2,t1,-1
9d009b20:	0105102b 	sltu	v0,t0,a1
9d009b24:	10400004 	beqz	v0,9d009b38 <__umoddi3+0x344>
9d009b28:	000d6400 	sll	t4,t5,0x10
9d009b2c:	252afffe 	addiu	t2,t1,-2
9d009b30:	01074021 	addu	t0,t0,a3
9d009b34:	000d6400 	sll	t4,t5,0x10
9d009b38:	01c61004 	sllv	v0,a2,t6
9d009b3c:	018a6025 	or	t4,t4,t2
9d009b40:	01820019 	multu	t4,v0
9d009b44:	01054023 	subu	t0,t0,a1
9d009b48:	01c41804 	sllv	v1,a0,t6
9d009b4c:	00006810 	mfhi	t5
9d009b50:	010d202b 	sltu	a0,t0,t5
9d009b54:	01a02825 	move	a1,t5
9d009b58:	00006012 	mflo	t4
9d009b5c:	14800005 	bnez	a0,9d009b74 <__umoddi3+0x380>
9d009b60:	00003012 	mflo	a2
9d009b64:	150d0007 	bne	t0,t5,9d009b84 <__umoddi3+0x390>
9d009b68:	006c202b 	sltu	a0,v1,t4
9d009b6c:	10800006 	beqz	a0,9d009b88 <__umoddi3+0x394>
9d009b70:	00663023 	subu	a2,v1,a2
9d009b74:	01823023 	subu	a2,t4,v0
9d009b78:	01a73823 	subu	a3,t5,a3
9d009b7c:	0186602b 	sltu	t4,t4,a2
9d009b80:	00ec2823 	subu	a1,a3,t4
9d009b84:	00663023 	subu	a2,v1,a2
9d009b88:	0066182b 	sltu	v1,v1,a2
9d009b8c:	01054023 	subu	t0,t0,a1
9d009b90:	01031823 	subu	v1,t0,v1
9d009b94:	01631004 	sllv	v0,v1,t3
9d009b98:	01c63006 	srlv	a2,a2,t6
9d009b9c:	00461025 	or	v0,v0,a2
9d009ba0:	01c31806 	srlv	v1,v1,t6
9d009ba4:	03e00008 	jr	ra
9d009ba8:	00000000 	nop

Disassembly of section .text.dp32mul:

9d009bac <__muldf3>:
9d009bac:	00055040 000a5542 00054ac0 00047d42     @P..BU...J..B}..
9d009bbc:	012f4825 000442c0 3c0e8000 012e4825     %H/..B.....<%H..
9d009bcc:	00076840 000d6d42 000762c0 00067d42     @h..Bm...b..B}..
9d009bdc:	018f6025 00065ac0 018e6025 00a72826     %`...Z..%`..&(..
9d009bec:	00ae2824 254fffff 2de107fe 10200047     $(....O%...-G. .
9d009bfc:	00000000                                ....

9d009c00 <Clab1>:
9d009c00:	25afffff 	addiu	t7,t5,-1
9d009c04:	2de107fe 	sltiu	at,t7,2046
9d009c08:	1020006f 	beqz	at,9d009dc8 <CspecB>
9d009c0c:	00000000 	nop

9d009c10 <Clab2>:
9d009c10:	25affc02 	addiu	t7,t5,-1022
9d009c14:	014f5021 	addu	t2,t2,t7
9d009c18:	012c0019 	multu	t1,t4
9d009c1c:	00003812 	mflo	a3
9d009c20:	00007010 	mfhi	t6
9d009c24:	010b0019 	multu	t0,t3
9d009c28:	00002012 	mflo	a0
9d009c2c:	00003010 	mfhi	a2
9d009c30:	012b0019 	multu	t1,t3
9d009c34:	00005812 	mflo	t3
9d009c38:	00006810 	mfhi	t5
9d009c3c:	00cb3021 	addu	a2,a2,t3
9d009c40:	00cb782b 	sltu	t7,a2,t3
9d009c44:	00ed3821 	addu	a3,a3,t5
9d009c48:	00ef3821 	addu	a3,a3,t7
9d009c4c:	10ed0002 	beq	a3,t5,9d009c58 <L20>
9d009c50:	00000000 	nop
9d009c54:	00ed782b 	sltu	t7,a3,t5

9d009c58 <L20>:
9d009c58:	01cf7021 	addu	t6,t6,t7
9d009c5c:	010c0019 	multu	t0,t4
9d009c60:	00004012 	mflo	t0
9d009c64:	00004810 	mfhi	t1
9d009c68:	00c83021 	addu	a2,a2,t0
9d009c6c:	00c8782b 	sltu	t7,a2,t0
9d009c70:	00e93821 	addu	a3,a3,t1
9d009c74:	00ef3821 	addu	a3,a3,t7
9d009c78:	10e90002 	beq	a3,t1,9d009c84 <L21>
9d009c7c:	00000000 	nop
9d009c80:	00e9782b 	sltu	t7,a3,t1

9d009c84 <L21>:
9d009c84:	01cf7021 	addu	t6,t6,t7
9d009c88:	00867825 	or	t7,a0,a2
9d009c8c:	11e00002 	beqz	t7,9d009c98 <i13>
9d009c90:	00000000 	nop
9d009c94:	34e70001 	ori	a3,a3,0x1

9d009c98 <i13>:
9d009c98:	000e4825 	or	t1,zero,t6
9d009c9c:	05200006 	bltz	t1,9d009cb8 <i14>
9d009ca0:	00074025 	or	t0,zero,a3
9d009ca4:	0100782a 	slt	t7,t0,zero
9d009ca8:	01084021 	addu	t0,t0,t0
9d009cac:	01294821 	addu	t1,t1,t1
9d009cb0:	012f4821 	addu	t1,t1,t7
9d009cb4:	254affff 	addiu	t2,t2,-1

9d009cb8 <i14>:
9d009cb8:	254fffff 	addiu	t7,t2,-1
9d009cbc:	2de107fe 	sltiu	at,t7,2046
9d009cc0:	10200068 	beqz	at,9d009e64 <Coveund>
9d009cc4:	00000000 	nop
9d009cc8:	25080400 	addiu	t0,t0,1024
9d009ccc:	2d0f0400 	sltiu	t7,t0,1024
9d009cd0:	012f4821 	addu	t1,t1,t7
9d009cd4:	012f782b 	sltu	t7,t1,t7
9d009cd8:	014f5021 	addu	t2,t2,t7

9d009cdc <Clab8>:
9d009cdc:	00087ac2 	srl	t7,t0,0xb
9d009ce0:	31ef0001 	andi	t7,t7,0x1
9d009ce4:	010f4023 	subu	t0,t0,t7
9d009ce8:	000822c2 	srl	a0,t0,0xb
9d009cec:	00097d40 	sll	t7,t1,0x15
9d009cf0:	008f2025 	or	a0,a0,t7
9d009cf4:	00097840 	sll	t7,t1,0x1
9d009cf8:	000f7b02 	srl	t7,t7,0xc
9d009cfc:	00af2825 	or	a1,a1,t7
9d009d00:	000a7d00 	sll	t7,t2,0x14
9d009d04:	00af2825 	or	a1,a1,t7

9d009d08 <Cret>:
9d009d08:	00041025 	or	v0,zero,a0
9d009d0c:	00051825 	or	v1,zero,a1

9d009d10 <C999>:
9d009d10:	03e00008 	jr	ra
9d009d14:	00000000 	nop

9d009d18 <CspecA>:
9d009d18:	0100782a 	slt	t7,t0,zero
9d009d1c:	01084021 	addu	t0,t0,t0
9d009d20:	01294821 	addu	t1,t1,t1
9d009d24:	1540001c 	bnez	t2,9d009d98 <i15>
9d009d28:	012f4821 	addu	t1,t1,t7
9d009d2c:	01287825 	or	t7,t1,t0
9d009d30:	11e00014 	beqz	t7,9d009d84 <i16>
9d009d34:	00000000 	nop
9d009d38:	15200008 	bnez	t1,9d009d5c <L22>
9d009d3c:	00000000 	nop
9d009d40:	15000003 	bnez	t0,9d009d50 <L23>
9d009d44:	00000000 	nop
9d009d48:	1000ffad 	b	9d009c00 <Clab1>
9d009d4c:	240a0000 	li	t2,0

9d009d50 <L23>:
9d009d50:	01004825 	move	t1,t0
9d009d54:	24080000 	li	t0,0
9d009d58:	254affe0 	addiu	t2,t2,-32

9d009d5c <L22>:
9d009d5c:	712e7020 	clz	t6,t1
9d009d60:	11c0ffa7 	beqz	t6,9d009c00 <Clab1>
9d009d64:	00000000 	nop
9d009d68:	014e5023 	subu	t2,t2,t6
9d009d6c:	000e3822 	neg	a3,t6
9d009d70:	00e83806 	srlv	a3,t0,a3
9d009d74:	01c84004 	sllv	t0,t0,t6
9d009d78:	01c94804 	sllv	t1,t1,t6
9d009d7c:	1000ffa0 	b	9d009c00 <Clab1>
9d009d80:	01274825 	or	t1,t1,a3

9d009d84 <i16>:
9d009d84:	240107ff 	li	at,2047
9d009d88:	11a10033 	beq	t5,at,9d009e58 <Cnan>
9d009d8c:	00000000 	nop
9d009d90:	1000ffdd 	b	9d009d08 <Cret>
9d009d94:	00000000 	nop

9d009d98 <i15>:
9d009d98:	01287825 	or	t7,t1,t0
9d009d9c:	15e0002e 	bnez	t7,9d009e58 <Cnan>
9d009da0:	00000000 	nop
9d009da4:	15a00005 	bnez	t5,9d009dbc <i17>
9d009da8:	00000000 	nop
9d009dac:	000c7840 	sll	t7,t4,0x1
9d009db0:	01eb7825 	or	t7,t7,t3
9d009db4:	11e00028 	beqz	t7,9d009e58 <Cnan>
9d009db8:	00000000 	nop

9d009dbc <i17>:
9d009dbc:	240107ff 	li	at,2047
9d009dc0:	15a10021 	bne	t5,at,9d009e48 <Cinf>
9d009dc4:	00000000 	nop

9d009dc8 <CspecB>:
9d009dc8:	0160782a 	slt	t7,t3,zero
9d009dcc:	016b5821 	addu	t3,t3,t3
9d009dd0:	018c6021 	addu	t4,t4,t4
9d009dd4:	15a00019 	bnez	t5,9d009e3c <i18>
9d009dd8:	018f6021 	addu	t4,t4,t7
9d009ddc:	018b7825 	or	t7,t4,t3
9d009de0:	11e00014 	beqz	t7,9d009e34 <i19>
9d009de4:	00000000 	nop
9d009de8:	15800008 	bnez	t4,9d009e0c <L25>
9d009dec:	00000000 	nop
9d009df0:	15600003 	bnez	t3,9d009e00 <L26>
9d009df4:	00000000 	nop
9d009df8:	1000ff85 	b	9d009c10 <Clab2>
9d009dfc:	240d0000 	li	t5,0

9d009e00 <L26>:
9d009e00:	01606025 	move	t4,t3
9d009e04:	240b0000 	li	t3,0
9d009e08:	25adffe0 	addiu	t5,t5,-32

9d009e0c <L25>:
9d009e0c:	71863020 	clz	a2,t4
9d009e10:	10c0ff7f 	beqz	a2,9d009c10 <Clab2>
9d009e14:	00000000 	nop
9d009e18:	01a66823 	subu	t5,t5,a2
9d009e1c:	00067022 	neg	t6,a2
9d009e20:	01cb7006 	srlv	t6,t3,t6
9d009e24:	00cb5804 	sllv	t3,t3,a2
9d009e28:	00cc6004 	sllv	t4,t4,a2
9d009e2c:	1000ff78 	b	9d009c10 <Clab2>
9d009e30:	018e6025 	or	t4,t4,t6

9d009e34 <i19>:
9d009e34:	1000ffb4 	b	9d009d08 <Cret>
9d009e38:	24040000 	li	a0,0

9d009e3c <i18>:
9d009e3c:	018b7825 	or	t7,t4,t3
9d009e40:	15e00005 	bnez	t7,9d009e58 <Cnan>
9d009e44:	00000000 	nop

9d009e48 <Cinf>:
9d009e48:	3c017ff0 	lui	at,0x7ff0
9d009e4c:	00a12825 	or	a1,a1,at
9d009e50:	1000ffad 	b	9d009d08 <Cret>
9d009e54:	24040000 	li	a0,0

9d009e58 <Cnan>:
9d009e58:	3c05fff8 	lui	a1,0xfff8
9d009e5c:	1000ffaa 	b	9d009d08 <Cret>
9d009e60:	24040000 	li	a0,0

9d009e64 <Coveund>:
9d009e64:	1d40fff8 	bgtz	t2,9d009e48 <Cinf>
9d009e68:	00000000 	nop
9d009e6c:	240e0001 	li	t6,1
9d009e70:	01ca7023 	subu	t6,t6,t2

9d009e74 <L28>:
9d009e74:	2dc10020 	sltiu	at,t6,32
9d009e78:	14200007 	bnez	at,9d009e98 <L29>
9d009e7c:	00000000 	nop
9d009e80:	21ceffe0 	addi	t6,t6,-32
9d009e84:	0008302b 	sltu	a2,zero,t0
9d009e88:	1009000d 	beq	zero,t1,9d009ec0 <L30>
9d009e8c:	01264025 	or	t0,t1,a2
9d009e90:	1000fff8 	b	9d009e74 <L28>
9d009e94:	34090000 	li	t1,0x0

9d009e98 <L29>:
9d009e98:	11c00009 	beqz	t6,9d009ec0 <L30>
9d009e9c:	00000000 	nop
9d009ea0:	000e3822 	neg	a3,t6
9d009ea4:	00e83004 	sllv	a2,t0,a3
9d009ea8:	00e93804 	sllv	a3,t1,a3
9d009eac:	01c84006 	srlv	t0,t0,t6
9d009eb0:	01c94806 	srlv	t1,t1,t6
9d009eb4:	10c00002 	beqz	a2,9d009ec0 <L30>
9d009eb8:	00e84025 	or	t0,a3,t0
9d009ebc:	35080002 	ori	t0,t0,0x2

9d009ec0 <L30>:
9d009ec0:	25080400 	addiu	t0,t0,1024
9d009ec4:	2d0f0400 	sltiu	t7,t0,1024
9d009ec8:	012f4821 	addu	t1,t1,t7
9d009ecc:	1000ff83 	b	9d009cdc <Clab8>
9d009ed0:	000957c2 	srl	t2,t1,0x1f
9d009ed4:	00000000 	nop

Disassembly of section .text:

9d009ed8 <Ext0ISR>:
#define BUFFER_SIZE 100

volatile unsigned int timer = 0;
volatile unsigned int state = 0;

void __ISR(_EXTERNAL_0_VECTOR, IPL2SOFT) Ext0ISR(void) { // step 1: the ISR
9d009ed8:	415de800 	rdpgpr	sp,sp
9d009edc:	401a7000 	mfc0	k0,c0_epc
9d009ee0:	401b6000 	mfc0	k1,c0_status
9d009ee4:	27bdff18 	addiu	sp,sp,-232
9d009ee8:	afba00e4 	sw	k0,228(sp)
9d009eec:	401a6002 	mfc0	k0,c0_srsctl
9d009ef0:	afbb00e0 	sw	k1,224(sp)
9d009ef4:	afba00dc 	sw	k0,220(sp)
9d009ef8:	7c1b7844 	ins	k1,zero,0x1,0xf
9d009efc:	377b0800 	ori	k1,k1,0x800
9d009f00:	409b6000 	mtc0	k1,c0_status
9d009f04:	afbf00cc 	sw	ra,204(sp)
9d009f08:	afbe00c8 	sw	s8,200(sp)
9d009f0c:	afb900c4 	sw	t9,196(sp)
9d009f10:	afb800c0 	sw	t8,192(sp)
9d009f14:	afb100bc 	sw	s1,188(sp)
9d009f18:	afb000b8 	sw	s0,184(sp)
9d009f1c:	afaf00b4 	sw	t7,180(sp)
9d009f20:	afae00b0 	sw	t6,176(sp)
9d009f24:	afad00ac 	sw	t5,172(sp)
9d009f28:	afac00a8 	sw	t4,168(sp)
9d009f2c:	afab00a4 	sw	t3,164(sp)
9d009f30:	afaa00a0 	sw	t2,160(sp)
9d009f34:	afa9009c 	sw	t1,156(sp)
9d009f38:	afa80098 	sw	t0,152(sp)
9d009f3c:	afa70094 	sw	a3,148(sp)
9d009f40:	afa60090 	sw	a2,144(sp)
9d009f44:	afa5008c 	sw	a1,140(sp)
9d009f48:	afa40088 	sw	a0,136(sp)
9d009f4c:	afa30084 	sw	v1,132(sp)
9d009f50:	afa20080 	sw	v0,128(sp)
9d009f54:	afa1007c 	sw	at,124(sp)
9d009f58:	00001012 	mflo	v0
9d009f5c:	afa200d4 	sw	v0,212(sp)
9d009f60:	00001810 	mfhi	v1
9d009f64:	afa300d0 	sw	v1,208(sp)
9d009f68:	03a0f025 	move	s8,sp
    // _CP0_SET_COUNT(0);
    char buffer[BUFFER_SIZE];
    unsigned int begin_timer = _CP0_GET_COUNT();
9d009f6c:	40114800 	mfc0	s1,c0_count
    if (begin_timer - timer >= 2400) {
9d009f70:	8f908014 	lw	s0,-32748(gp)
9d009f74:	02308023 	subu	s0,s1,s0
9d009f78:	2e100960 	sltiu	s0,s0,2400
9d009f7c:	16000019 	bnez	s0,9d009fe4 <Ext0ISR+0x10c>
9d009f80:	00000000 	nop
        if (!state) {
9d009f84:	8f828010 	lw	v0,-32752(gp)
9d009f88:	14400040 	bnez	v0,9d00a08c <Ext0ISR+0x1b4>
9d009f8c:	27df0010 	addiu	ra,s8,16
            char first_press[BUFFER_SIZE];
            sprintf(first_press, "Press the USER button again to stop the timer.\r\n");
9d009f90:	3c049d00 	lui	a0,0x9d00
9d009f94:	24847490 	addiu	a0,a0,29840
9d009f98:	24820030 	addiu	v0,a0,48
9d009f9c:	8c870000 	lw	a3,0(a0)
9d009fa0:	8c860004 	lw	a2,4(a0)
9d009fa4:	8c850008 	lw	a1,8(a0)
9d009fa8:	8c83000c 	lw	v1,12(a0)
9d009fac:	afe70000 	sw	a3,0(ra)
9d009fb0:	afe60004 	sw	a2,4(ra)
9d009fb4:	afe50008 	sw	a1,8(ra)
9d009fb8:	afe3000c 	sw	v1,12(ra)
9d009fbc:	24840010 	addiu	a0,a0,16
9d009fc0:	1482fff6 	bne	a0,v0,9d009f9c <Ext0ISR+0xc4>
9d009fc4:	27ff0010 	addiu	ra,ra,16
9d009fc8:	90840000 	lbu	a0,0(a0)
9d009fcc:	a3e40000 	sb	a0,0(ra)
            NU32DIP_WriteUART1(first_press);
9d009fd0:	0f4028d5 	jal	9d00a354 <NU32DIP_WriteUART1>
9d009fd4:	27c40010 	addiu	a0,s8,16
            char between_time[BUFFER_SIZE];
            float time_passed = (begin_timer-timer)/24000000.0;
            sprintf(between_time, "%f seconds elapsed.\r\n", time_passed);
            NU32DIP_WriteUART1(between_time);
        }
        state += 1;
9d009fd8:	8f908010 	lw	s0,-32752(gp)
9d009fdc:	26100001 	addiu	s0,s0,1
9d009fe0:	af908010 	sw	s0,-32752(gp)
        // sprintf(buffer, "the state is: %i\r\n", state);
        // NU32DIP_WriteUART1(buffer);
    }
    timer = begin_timer;
9d009fe4:	af918014 	sw	s1,-32748(gp)
    IFS0bits.INT0IF = 0; // clear interrupt flag IFS0<3>
9d009fe8:	3c10bf88 	lui	s0,0xbf88
9d009fec:	8e111030 	lw	s1,4144(s0)
9d009ff0:	7c1118c4 	ins	s1,zero,0x3,0x1
9d009ff4:	ae111030 	sw	s1,4144(s0)
}
9d009ff8:	03c0e825 	move	sp,s8
9d009ffc:	8fa200d4 	lw	v0,212(sp)
9d00a000:	00400013 	mtlo	v0
9d00a004:	8fa300d0 	lw	v1,208(sp)
9d00a008:	00600011 	mthi	v1
9d00a00c:	8fbf00cc 	lw	ra,204(sp)
9d00a010:	8fbe00c8 	lw	s8,200(sp)
9d00a014:	8fb900c4 	lw	t9,196(sp)
9d00a018:	8fb800c0 	lw	t8,192(sp)
9d00a01c:	8fb100bc 	lw	s1,188(sp)
9d00a020:	8fb000b8 	lw	s0,184(sp)
9d00a024:	8faf00b4 	lw	t7,180(sp)
9d00a028:	8fae00b0 	lw	t6,176(sp)
9d00a02c:	8fad00ac 	lw	t5,172(sp)
9d00a030:	8fac00a8 	lw	t4,168(sp)
9d00a034:	8fab00a4 	lw	t3,164(sp)
9d00a038:	8faa00a0 	lw	t2,160(sp)
9d00a03c:	8fa9009c 	lw	t1,156(sp)
9d00a040:	8fa80098 	lw	t0,152(sp)
9d00a044:	8fa70094 	lw	a3,148(sp)
9d00a048:	8fa60090 	lw	a2,144(sp)
9d00a04c:	8fa5008c 	lw	a1,140(sp)
9d00a050:	8fa40088 	lw	a0,136(sp)
9d00a054:	8fa30084 	lw	v1,132(sp)
9d00a058:	8fa20080 	lw	v0,128(sp)
9d00a05c:	8fa1007c 	lw	at,124(sp)
9d00a060:	41606000 	di
9d00a064:	000000c0 	ehb
9d00a068:	8fba00e4 	lw	k0,228(sp)
9d00a06c:	8fbb00e0 	lw	k1,224(sp)
9d00a070:	409a7000 	mtc0	k0,c0_epc
9d00a074:	8fba00dc 	lw	k0,220(sp)
9d00a078:	27bd00e8 	addiu	sp,sp,232
9d00a07c:	409a6002 	mtc0	k0,c0_srsctl
9d00a080:	41dde800 	wrpgpr	sp,sp
9d00a084:	409b6000 	mtc0	k1,c0_status
9d00a088:	42000018 	eret
            float time_passed = (begin_timer-timer)/24000000.0;
9d00a08c:	8f848014 	lw	a0,-32748(gp)
9d00a090:	0f402db7 	jal	9d00b6dc <__floatunsidf>
9d00a094:	02242023 	subu	a0,s1,a0
9d00a098:	3c049d00 	lui	a0,0x9d00
9d00a09c:	8c867520 	lw	a2,29984(a0)
9d00a0a0:	8c877524 	lw	a3,29988(a0)
9d00a0a4:	00402025 	move	a0,v0
9d00a0a8:	0f4022d4 	jal	9d008b50 <__divdf3>
9d00a0ac:	00602825 	move	a1,v1
9d00a0b0:	00402025 	move	a0,v0
9d00a0b4:	0f402b01 	jal	9d00ac04 <__truncdfsf2>
9d00a0b8:	00602825 	move	a1,v1
            sprintf(between_time, "%f seconds elapsed.\r\n", time_passed);
9d00a0bc:	0f402bed 	jal	9d00afb4 <__extendsfdf2>
9d00a0c0:	00402025 	move	a0,v0
9d00a0c4:	00403025 	move	a2,v0
9d00a0c8:	00603825 	move	a3,v1
9d00a0cc:	3c059d00 	lui	a1,0x9d00
9d00a0d0:	24a574c4 	addiu	a1,a1,29892
9d00a0d4:	0f402e1a 	jal	9d00b868 <_dsprintf_deEfFgGn>
9d00a0d8:	27c40010 	addiu	a0,s8,16
            NU32DIP_WriteUART1(between_time);
9d00a0dc:	0f4028d5 	jal	9d00a354 <NU32DIP_WriteUART1>
9d00a0e0:	27c40010 	addiu	a0,s8,16
9d00a0e4:	1000ffbc 	b	9d009fd8 <Ext0ISR+0x100>
9d00a0e8:	00000000 	nop

9d00a0ec <main>:

int main(void) {
9d00a0ec:	27bdff18 	addiu	sp,sp,-232
9d00a0f0:	afbf00e4 	sw	ra,228(sp)
9d00a0f4:	afb200e0 	sw	s2,224(sp)
9d00a0f8:	afb100dc 	sw	s1,220(sp)
    NU32DIP_Startup(); // cache on, min flash wait, interrupts on, LED/button init, UART init
9d00a0fc:	0f402874 	jal	9d00a1d0 <NU32DIP_Startup>
9d00a100:	afb000d8 	sw	s0,216(sp)
    __builtin_disable_interrupts(); // step 2: disable interrupts
9d00a104:	41626000 	di	v0
9d00a108:	000000c0 	ehb
    INTCONbits.INT0EP = 0; // step 3: INT0 triggers on falling edge
9d00a10c:	3c02bf88 	lui	v0,0xbf88
9d00a110:	8c431000 	lw	v1,4096(v0)
9d00a114:	7c030004 	ins	v1,zero,0x0,0x1
9d00a118:	ac431000 	sw	v1,4096(v0)
    IPC0bits.INT0IP = 2; // step 4: interrupt priority 2
9d00a11c:	3c02bf88 	lui	v0,0xbf88
9d00a120:	8c431090 	lw	v1,4240(v0)
9d00a124:	24040002 	li	a0,2
9d00a128:	7c83e684 	ins	v1,a0,0x1a,0x3
9d00a12c:	ac431090 	sw	v1,4240(v0)
    IPC0bits.INT0IS = 1; // step 4: interrupt priority 1
9d00a130:	8c431090 	lw	v1,4240(v0)
9d00a134:	24040001 	li	a0,1
9d00a138:	7c83ce04 	ins	v1,a0,0x18,0x2
9d00a13c:	ac431090 	sw	v1,4240(v0)
    IFS0bits.INT0IF = 0; // step 5: clear the int flag
9d00a140:	3c02bf88 	lui	v0,0xbf88
9d00a144:	8c431030 	lw	v1,4144(v0)
9d00a148:	7c0318c4 	ins	v1,zero,0x3,0x1
9d00a14c:	ac431030 	sw	v1,4144(v0)
    IEC0bits.INT0IE = 1; // step 6: enable INT0 by setting IEC0<3>
9d00a150:	3c02bf88 	lui	v0,0xbf88
9d00a154:	8c431060 	lw	v1,4192(v0)
9d00a158:	7c8318c4 	ins	v1,a0,0x3,0x1
9d00a15c:	ac431060 	sw	v1,4192(v0)
    __builtin_enable_interrupts(); // step 7: enable interrupts
9d00a160:	41626020 	ei	v0
    // Connect RD7 (USER button) to INT0 (D0)
    int seconds = 0;
    char buffer[BUFFER_SIZE];
    sprintf(buffer, "Timer has been reset, now is second %i\r\n", seconds);
9d00a164:	00003025 	move	a2,zero
9d00a168:	3c059d00 	lui	a1,0x9d00
9d00a16c:	24a574dc 	addiu	a1,a1,29916
9d00a170:	0f402e1a 	jal	9d00b868 <_dsprintf_deEfFgGn>
9d00a174:	27a40010 	addiu	a0,sp,16
    NU32DIP_WriteUART1(buffer);
9d00a178:	0f4028d5 	jal	9d00a354 <NU32DIP_WriteUART1>
9d00a17c:	27a40010 	addiu	a0,sp,16
    unsigned int curr_timer = _CP0_GET_COUNT();
9d00a180:	40034800 	mfc0	v1,c0_count
    int seconds = 0;
9d00a184:	00009025 	move	s2,zero
    while(1) {
        while (_CP0_GET_COUNT() - curr_timer < 24000000) {}
9d00a188:	3c11016e 	lui	s1,0x16e
9d00a18c:	26313600 	addiu	s1,s1,13824
        seconds += 1;
        char buffer[BUFFER_SIZE];
        sprintf(buffer, "Now is second %i\r\n", seconds);
9d00a190:	3c109d00 	lui	s0,0x9d00
9d00a194:	26107508 	addiu	s0,s0,29960
        while (_CP0_GET_COUNT() - curr_timer < 24000000) {}
9d00a198:	40024800 	mfc0	v0,c0_count
9d00a19c:	00431023 	subu	v0,v0,v1
9d00a1a0:	0051102b 	sltu	v0,v0,s1
9d00a1a4:	1440fffc 	bnez	v0,9d00a198 <main+0xac>
9d00a1a8:	02002825 	move	a1,s0
        seconds += 1;
9d00a1ac:	26520001 	addiu	s2,s2,1
        sprintf(buffer, "Now is second %i\r\n", seconds);
9d00a1b0:	02403025 	move	a2,s2
9d00a1b4:	0f402e1a 	jal	9d00b868 <_dsprintf_deEfFgGn>
9d00a1b8:	27a40074 	addiu	a0,sp,116
        NU32DIP_WriteUART1(buffer);
9d00a1bc:	0f4028d5 	jal	9d00a354 <NU32DIP_WriteUART1>
9d00a1c0:	27a40074 	addiu	a0,sp,116
        curr_timer = _CP0_GET_COUNT();
9d00a1c4:	40034800 	mfc0	v1,c0_count
    while(1) {
9d00a1c8:	1000fff3 	b	9d00a198 <main+0xac>
9d00a1cc:	00000000 	nop

9d00a1d0 <NU32DIP_Startup>:
#include "nu32dip.h"

void NU32DIP_Startup() {
9d00a1d0:	27bdfff8 	addiu	sp,sp,-8
9d00a1d4:	afbf0004 	sw	ra,4(sp)
    __builtin_disable_interrupts(); // disable interrupts while initializing things
9d00a1d8:	41626000 	di	v0
9d00a1dc:	000000c0 	ehb

    // set the CP0 CONFIG register to indicate that kseg0 is cacheable (0x3)
    __builtin_mtc0(_CP0_CONFIG, _CP0_CONFIG_SELECT, 0xa4210583);
9d00a1e0:	3c02a421 	lui	v0,0xa421
9d00a1e4:	24420583 	addiu	v0,v0,1411
9d00a1e8:	40828000 	mtc0	v0,c0_config
9d00a1ec:	000000c0 	ehb

    // 0 data RAM access wait states
    BMXCONbits.BMXWSDRM = 0x0;
9d00a1f0:	3c02bf88 	lui	v0,0xbf88
9d00a1f4:	8c432000 	lw	v1,8192(v0)
9d00a1f8:	7c033184 	ins	v1,zero,0x6,0x1
9d00a1fc:	ac432000 	sw	v1,8192(v0)

    // enable multi vector interrupts
    INTCONbits.MVEC = 0x1;
9d00a200:	3c02bf88 	lui	v0,0xbf88
9d00a204:	8c441000 	lw	a0,4096(v0)
9d00a208:	24030001 	li	v1,1
9d00a20c:	7c646304 	ins	a0,v1,0xc,0x1
9d00a210:	ac441000 	sw	a0,4096(v0)

    // disable JTAG to get pins back
    DDPCONbits.JTAGEN = 0;
9d00a214:	3c02bf81 	lui	v0,0xbf81
9d00a218:	9444f200 	lhu	a0,-3584(v0)
9d00a21c:	7c0418c4 	ins	a0,zero,0x3,0x1
9d00a220:	a444f200 	sh	a0,-3584(v0)

    // do your TRIS and LAT commands here
    TRISBCLR = 0b110000; // B4 and B5 LEDs
9d00a224:	3c02bf88 	lui	v0,0xbf88
9d00a228:	24040030 	li	a0,48
9d00a22c:	ac446114 	sw	a0,24852(v0)
    TRISASET = 0b010000; // A4 user button
9d00a230:	3c02bf88 	lui	v0,0xbf88
9d00a234:	24040010 	li	a0,16
9d00a238:	ac446018 	sw	a0,24600(v0)
    //NU32_LED1 = 1; // LED1 is off
    NU32DIP_YELLOW = 1;
9d00a23c:	3c02bf88 	lui	v0,0xbf88
9d00a240:	94446130 	lhu	a0,24880(v0)
9d00a244:	7c642944 	ins	a0,v1,0x5,0x1
9d00a248:	a4446130 	sh	a0,24880(v0)
    //NU32_LED2 = 0; // LED2 is on
    NU32DIP_GREEN = 0;
9d00a24c:	94446130 	lhu	a0,24880(v0)
9d00a250:	7c042104 	ins	a0,zero,0x4,0x1
9d00a254:	a4446130 	sh	a0,24880(v0)

    //UART1 pins
    U1RXRbits.U1RXR = 0b0000; // Set A2 to U1RX
9d00a258:	3c02bf81 	lui	v0,0xbf81
9d00a25c:	9044fa50 	lbu	a0,-1456(v0)
9d00a260:	7c041804 	ins	a0,zero,0x0,0x4
9d00a264:	a044fa50 	sb	a0,-1456(v0)
    RPB3Rbits.RPB3R = 0b0001; // Set B3 to U1TX
9d00a268:	3c02bf81 	lui	v0,0xbf81
9d00a26c:	9044fb38 	lbu	a0,-1224(v0)
9d00a270:	7c641804 	ins	a0,v1,0x0,0x4
9d00a274:	a044fb38 	sb	a0,-1224(v0)

    // turn on UART1 without an interrupt
    U1MODEbits.BRGH = 0; // set baud to NU32_DESIRED_BAUD
9d00a278:	3c02bf80 	lui	v0,0xbf80
9d00a27c:	94446000 	lhu	a0,24576(v0)
9d00a280:	7c0418c4 	ins	a0,zero,0x3,0x1
9d00a284:	a4446000 	sh	a0,24576(v0)
    U1BRG = ((NU32DIP_SYS_FREQ / NU32DIP_DESIRED_BAUD) / 16) - 1;
9d00a288:	3c04bf80 	lui	a0,0xbf80
9d00a28c:	2405000c 	li	a1,12
9d00a290:	ac856040 	sw	a1,24640(a0)

    // 8 bit, no parity bit, and 1 stop bit (8N1 setup)
    U1MODEbits.PDSEL = 0;
9d00a294:	94446000 	lhu	a0,24576(v0)
9d00a298:	7c041044 	ins	a0,zero,0x1,0x2
9d00a29c:	a4446000 	sh	a0,24576(v0)
    U1MODEbits.STSEL = 0;
9d00a2a0:	94446000 	lhu	a0,24576(v0)
9d00a2a4:	7c040004 	ins	a0,zero,0x0,0x1
9d00a2a8:	a4446000 	sh	a0,24576(v0)

    // configure TX & RX pins as output & input pins
    U1STAbits.UTXEN = 1;
9d00a2ac:	3c04bf80 	lui	a0,0xbf80
9d00a2b0:	8c856010 	lw	a1,24592(a0)
9d00a2b4:	7c655284 	ins	a1,v1,0xa,0x1
9d00a2b8:	ac856010 	sw	a1,24592(a0)
    U1STAbits.URXEN = 1;
9d00a2bc:	8c856010 	lw	a1,24592(a0)
9d00a2c0:	7c656304 	ins	a1,v1,0xc,0x1
9d00a2c4:	ac856010 	sw	a1,24592(a0)
    // configure without hardware flow control
    U1MODEbits.UEN = 0;
9d00a2c8:	94446000 	lhu	a0,24576(v0)
9d00a2cc:	7c044a04 	ins	a0,zero,0x8,0x2
9d00a2d0:	a4446000 	sh	a0,24576(v0)

    // enable the uart
    U1MODEbits.ON = 1;
9d00a2d4:	94446000 	lhu	a0,24576(v0)
9d00a2d8:	7c647bc4 	ins	a0,v1,0xf,0x1
9d00a2dc:	a4446000 	sh	a0,24576(v0)

    __builtin_enable_interrupts();
9d00a2e0:	41626020 	ei	v0
}
9d00a2e4:	8fbf0004 	lw	ra,4(sp)
9d00a2e8:	03e00008 	jr	ra
9d00a2ec:	27bd0008 	addiu	sp,sp,8

9d00a2f0 <NU32DIP_ReadUART1>:
// block other functions until you get a '\r' or '\n'
// send the pointer to your char array and the number of elements in the array

void NU32DIP_ReadUART1(char * message, int maxLength) {
    char data = 0;
    int complete = 0, num_bytes = 0;
9d00a2f0:	00001025 	move	v0,zero
    // loop until you get a '\r' or '\n'
    while (!complete) {
        if (U1STAbits.URXDA) { // if data is available
9d00a2f4:	3c0abf80 	lui	t2,0xbf80
            data = U1RXREG; // read the data
9d00a2f8:	3c09bf80 	lui	t1,0xbf80
            if ((data == '\n') || (data == '\r')) {
9d00a2fc:	2408000a 	li	t0,10
9d00a300:	2407000d 	li	a3,13
        if (U1STAbits.URXDA) { // if data is available
9d00a304:	8d436010 	lw	v1,24592(t2)
9d00a308:	30630001 	andi	v1,v1,0x1
9d00a30c:	1060fffd 	beqz	v1,9d00a304 <NU32DIP_ReadUART1+0x14>
9d00a310:	00000000 	nop
            data = U1RXREG; // read the data
9d00a314:	8d236030 	lw	v1,24624(t1)
9d00a318:	7c031c20 	seb	v1,v1
            if ((data == '\n') || (data == '\r')) {
9d00a31c:	5068000b 	beql	v1,t0,9d00a34c <NU32DIP_ReadUART1+0x5c>
9d00a320:	00822021 	addu	a0,a0,v0
9d00a324:	10670008 	beq	v1,a3,9d00a348 <NU32DIP_ReadUART1+0x58>
9d00a328:	24460001 	addiu	a2,v0,1
                complete = 1;
            } else {
                message[num_bytes] = data;
                ++num_bytes;
                // roll over if the array is too small
                if (num_bytes >= maxLength) {
9d00a32c:	00c5302a 	slt	a2,a2,a1
                    num_bytes = 0;
9d00a330:	244b0001 	addiu	t3,v0,1
                message[num_bytes] = data;
9d00a334:	00821021 	addu	v0,a0,v0
9d00a338:	a0430000 	sb	v1,0(v0)
9d00a33c:	01601025 	move	v0,t3
9d00a340:	1000fff0 	b	9d00a304 <NU32DIP_ReadUART1+0x14>
9d00a344:	0006100a 	movz	v0,zero,a2
                }
            }
        }
    }
    // end the string
    message[num_bytes] = '\0';
9d00a348:	00822021 	addu	a0,a0,v0
}
9d00a34c:	03e00008 	jr	ra
9d00a350:	a0800000 	sb	zero,0(a0)

9d00a354 <NU32DIP_WriteUART1>:

// Write a character array using UART1

void NU32DIP_WriteUART1(const char * string) {
    while (*string != '\0') {
9d00a354:	80820000 	lb	v0,0(a0)
9d00a358:	1040000b 	beqz	v0,9d00a388 <NU32DIP_WriteUART1+0x34>
9d00a35c:	3c06bf80 	lui	a2,0xbf80
        while (U1STAbits.UTXBF) {
            ; // wait until tx buffer isn't full
        }
        U1TXREG = *string;
9d00a360:	3c05bf80 	lui	a1,0xbf80
        while (U1STAbits.UTXBF) {
9d00a364:	8cc36010 	lw	v1,24592(a2)
9d00a368:	7c630240 	ext	v1,v1,0x9,0x1
9d00a36c:	1460fffd 	bnez	v1,9d00a364 <NU32DIP_WriteUART1+0x10>
9d00a370:	00000000 	nop
        U1TXREG = *string;
9d00a374:	aca26020 	sw	v0,24608(a1)
        ++string;
9d00a378:	24840001 	addiu	a0,a0,1
    while (*string != '\0') {
9d00a37c:	80820000 	lb	v0,0(a0)
9d00a380:	1440fff8 	bnez	v0,9d00a364 <NU32DIP_WriteUART1+0x10>
9d00a384:	00000000 	nop
    }
}
9d00a388:	03e00008 	jr	ra
9d00a38c:	00000000 	nop

Disassembly of section .text.__pop_int:

9d00a390 <__pop_int>:
9d00a390:	24020088 	li	v0,136
9d00a394:	10a2003f 	beq	a1,v0,9d00a494 <__pop_int+0x104>
9d00a398:	28a20089 	slti	v0,a1,137
9d00a39c:	1040001a 	beqz	v0,9d00a408 <__pop_int+0x78>
9d00a3a0:	24020081 	li	v0,129
9d00a3a4:	10a20054 	beq	a1,v0,9d00a4f8 <__pop_int+0x168>
9d00a3a8:	28a20082 	slti	v0,a1,130
9d00a3ac:	10400005 	beqz	v0,9d00a3c4 <__pop_int+0x34>
9d00a3b0:	24020080 	li	v0,128
9d00a3b4:	50a20051 	beql	a1,v0,9d00a4fc <__pop_int+0x16c>
9d00a3b8:	8ce20000 	lw	v0,0(a3)
9d00a3bc:	03e00008 	jr	ra
9d00a3c0:	00001025 	move	v0,zero
9d00a3c4:	24020082 	li	v0,130
9d00a3c8:	50a2003b 	beql	a1,v0,9d00a4b8 <__pop_int+0x128>
9d00a3cc:	8ce20000 	lw	v0,0(a3)
9d00a3d0:	24020084 	li	v0,132
9d00a3d4:	14a2fff9 	bne	a1,v0,9d00a3bc <__pop_int+0x2c>
9d00a3d8:	00000000 	nop
9d00a3dc:	8ce20000 	lw	v0,0(a3)
9d00a3e0:	24430004 	addiu	v1,v0,4
9d00a3e4:	8c420000 	lw	v0,0(v0)
9d00a3e8:	10c00027 	beqz	a2,9d00a488 <__pop_int+0xf8>
9d00a3ec:	ace30000 	sw	v1,0(a3)
9d00a3f0:	7c021620 	seh	v0,v0
9d00a3f4:	ac820000 	sw	v0,0(a0)
9d00a3f8:	000217c3 	sra	v0,v0,0x1f
9d00a3fc:	ac820004 	sw	v0,4(a0)
9d00a400:	03e00008 	jr	ra
9d00a404:	24020001 	li	v0,1
9d00a408:	240200a0 	li	v0,160
9d00a40c:	50a20036 	beql	a1,v0,9d00a4e8 <__pop_int+0x158>
9d00a410:	8ce20000 	lw	v0,0(a3)
9d00a414:	28a200a1 	slti	v0,a1,161
9d00a418:	10400010 	beqz	v0,9d00a45c <__pop_int+0xcc>
9d00a41c:	24020090 	li	v0,144
9d00a420:	14a2ffe6 	bne	a1,v0,9d00a3bc <__pop_int+0x2c>
9d00a424:	00000000 	nop
9d00a428:	8ce20000 	lw	v0,0(a3)
9d00a42c:	24420007 	addiu	v0,v0,7
9d00a430:	7c021004 	ins	v0,zero,0x0,0x3
9d00a434:	8c480000 	lw	t0,0(v0)
9d00a438:	8c490004 	lw	t1,4(v0)
9d00a43c:	24420008 	addiu	v0,v0,8
9d00a440:	ace20000 	sw	v0,0(a3)
9d00a444:	ac880000 	sw	t0,0(a0)
9d00a448:	ac890004 	sw	t1,4(a0)
9d00a44c:	10c00001 	beqz	a2,9d00a454 <__pop_int+0xc4>
9d00a450:	24020001 	li	v0,1
9d00a454:	03e00008 	jr	ra
9d00a458:	00000000 	nop
9d00a45c:	240200c0 	li	v0,192
9d00a460:	50a20005 	beql	a1,v0,9d00a478 <__pop_int+0xe8>
9d00a464:	8ce20000 	lw	v0,0(a3)
9d00a468:	240200f0 	li	v0,240
9d00a46c:	14a2ffd3 	bne	a1,v0,9d00a3bc <__pop_int+0x2c>
9d00a470:	00000000 	nop
9d00a474:	8ce20000 	lw	v0,0(a3)
9d00a478:	24430004 	addiu	v1,v0,4
9d00a47c:	ace30000 	sw	v1,0(a3)
9d00a480:	10000002 	b	9d00a48c <__pop_int+0xfc>
9d00a484:	8c420000 	lw	v0,0(v0)
9d00a488:	3042ffff 	andi	v0,v0,0xffff
9d00a48c:	10000020 	b	9d00a510 <__pop_int+0x180>
9d00a490:	ac820000 	sw	v0,0(a0)
9d00a494:	8ce20000 	lw	v0,0(a3)
9d00a498:	24430004 	addiu	v1,v0,4
9d00a49c:	8c420000 	lw	v0,0(v0)
9d00a4a0:	10c00003 	beqz	a2,9d00a4b0 <__pop_int+0x120>
9d00a4a4:	ace30000 	sw	v1,0(a3)
9d00a4a8:	1000ffd2 	b	9d00a3f4 <__pop_int+0x64>
9d00a4ac:	7c021420 	seb	v0,v0
9d00a4b0:	1000fff6 	b	9d00a48c <__pop_int+0xfc>
9d00a4b4:	304200ff 	andi	v0,v0,0xff
9d00a4b8:	24420007 	addiu	v0,v0,7
9d00a4bc:	7c021004 	ins	v0,zero,0x0,0x3
9d00a4c0:	8c480000 	lw	t0,0(v0)
9d00a4c4:	8c490004 	lw	t1,4(v0)
9d00a4c8:	24420008 	addiu	v0,v0,8
9d00a4cc:	ace20000 	sw	v0,0(a3)
9d00a4d0:	ac880000 	sw	t0,0(a0)
9d00a4d4:	ac890004 	sw	t1,4(a0)
9d00a4d8:	10c0ffde 	beqz	a2,9d00a454 <__pop_int+0xc4>
9d00a4dc:	24020001 	li	v0,1
9d00a4e0:	03e00008 	jr	ra
9d00a4e4:	00000000 	nop
9d00a4e8:	24430004 	addiu	v1,v0,4
9d00a4ec:	ace30000 	sw	v1,0(a3)
9d00a4f0:	1000ffc0 	b	9d00a3f4 <__pop_int+0x64>
9d00a4f4:	8c420000 	lw	v0,0(v0)
9d00a4f8:	8ce20000 	lw	v0,0(a3)
9d00a4fc:	24430004 	addiu	v1,v0,4
9d00a500:	ace30000 	sw	v1,0(a3)
9d00a504:	8c420000 	lw	v0,0(v0)
9d00a508:	14c0ffbb 	bnez	a2,9d00a3f8 <__pop_int+0x68>
9d00a50c:	ac820000 	sw	v0,0(a0)
9d00a510:	1000ffbb 	b	9d00a400 <__pop_int+0x70>
9d00a514:	ac800004 	sw	zero,4(a0)

Disassembly of section .text.__fmt_d:

9d00a518 <__fmt_d>:
9d00a518:	27bdffc0 	addiu	sp,sp,-64
9d00a51c:	afb1002c 	sw	s1,44(sp)
9d00a520:	00808825 	move	s1,a0
9d00a524:	00c02025 	move	a0,a2
9d00a528:	8c870004 	lw	a3,4(a0)
9d00a52c:	8ca20000 	lw	v0,0(a1)
9d00a530:	afb40038 	sw	s4,56(sp)
9d00a534:	0007a7c2 	srl	s4,a3,0x1f
9d00a538:	afb30034 	sw	s3,52(sp)
9d00a53c:	afb20030 	sw	s2,48(sp)
9d00a540:	afb00028 	sw	s0,40(sp)
9d00a544:	afbf003c 	sw	ra,60(sp)
9d00a548:	00a08025 	move	s0,a1
9d00a54c:	8ca30004 	lw	v1,4(a1)
9d00a550:	8cb20008 	lw	s2,8(a1)
9d00a554:	afa20020 	sw	v0,32(sp)
9d00a558:	8cb3000c 	lw	s3,12(a1)
9d00a55c:	1280003e 	beqz	s4,9d00a658 <__fmt_d+0x140>
9d00a560:	8cc60000 	lw	a2,0(a2)
9d00a564:	00063023 	negu	a2,a2
9d00a568:	0006202b 	sltu	a0,zero,a2
9d00a56c:	00073823 	negu	a3,a3
9d00a570:	04600008 	bltz	v1,9d00a594 <__fmt_d+0x7c>
9d00a574:	00e43823 	subu	a3,a3,a0
9d00a578:	7c020844 	ins	v0,zero,0x1,0x1
9d00a57c:	16800005 	bnez	s4,9d00a594 <__fmt_d+0x7c>
9d00a580:	afa20020 	sw	v0,32(sp)
9d00a584:	8fa20020 	lw	v0,32(sp)
9d00a588:	30430004 	andi	v1,v0,0x4
9d00a58c:	1060002a 	beqz	v1,9d00a638 <__fmt_d+0x120>
9d00a590:	7c4200c0 	ext	v0,v0,0x3,0x1
9d00a594:	2642ffff 	addiu	v0,s2,-1
9d00a598:	27a30020 	addiu	v1,sp,32
9d00a59c:	afa30018 	sw	v1,24(sp)
9d00a5a0:	2403000a 	li	v1,10
9d00a5a4:	afa30014 	sw	v1,20(sp)
9d00a5a8:	afa20010 	sw	v0,16(sp)
9d00a5ac:	0f40299a 	jal	9d00a668 <__cvt_u>
9d00a5b0:	02002025 	move	a0,s0
9d00a5b4:	16800006 	bnez	s4,9d00a5d0 <__fmt_d+0xb8>
9d00a5b8:	2403002d 	li	v1,45
9d00a5bc:	8fa30020 	lw	v1,32(sp)
9d00a5c0:	30640004 	andi	a0,v1,0x4
9d00a5c4:	1080001e 	beqz	a0,9d00a640 <__fmt_d+0x128>
9d00a5c8:	30630008 	andi	v1,v1,0x8
9d00a5cc:	2403002b 	li	v1,43
9d00a5d0:	2442ffff 	addiu	v0,v0,-1
9d00a5d4:	02622021 	addu	a0,s3,v0
9d00a5d8:	a0830000 	sb	v1,0(a0)
9d00a5dc:	8e060010 	lw	a2,16(s0)
9d00a5e0:	8fa30020 	lw	v1,32(sp)
9d00a5e4:	02403825 	move	a3,s2
9d00a5e8:	24c6ffff 	addiu	a2,a2,-1
9d00a5ec:	afa30010 	sw	v1,16(sp)
9d00a5f0:	00c23023 	subu	a2,a2,v0
9d00a5f4:	02622821 	addu	a1,s3,v0
9d00a5f8:	0f402ac1 	jal	9d00ab04 <__pad>
9d00a5fc:	02202025 	move	a0,s1
9d00a600:	8e230004 	lw	v1,4(s1)
9d00a604:	30630100 	andi	v1,v1,0x100
9d00a608:	10600004 	beqz	v1,9d00a61c <__fmt_d+0x104>
9d00a60c:	8fbf003c 	lw	ra,60(sp)
9d00a610:	8e030004 	lw	v1,4(s0)
9d00a614:	0043202a 	slt	a0,v0,v1
9d00a618:	0064100b 	movn	v0,v1,a0
9d00a61c:	8fb40038 	lw	s4,56(sp)
9d00a620:	8fb30034 	lw	s3,52(sp)
9d00a624:	8fb20030 	lw	s2,48(sp)
9d00a628:	8fb1002c 	lw	s1,44(sp)
9d00a62c:	8fb00028 	lw	s0,40(sp)
9d00a630:	03e00008 	jr	ra
9d00a634:	27bd0040 	addiu	sp,sp,64
9d00a638:	1000ffd7 	b	9d00a598 <__fmt_d+0x80>
9d00a63c:	02421023 	subu	v0,s2,v0
9d00a640:	1060ffe6 	beqz	v1,9d00a5dc <__fmt_d+0xc4>
9d00a644:	24040020 	li	a0,32
9d00a648:	2442ffff 	addiu	v0,v0,-1
9d00a64c:	02621821 	addu	v1,s3,v0
9d00a650:	1000ffe2 	b	9d00a5dc <__fmt_d+0xc4>
9d00a654:	a0640000 	sb	a0,0(v1)
9d00a658:	0463ffc8 	bgezl	v1,9d00a57c <__fmt_d+0x64>
9d00a65c:	7c020844 	ins	v0,zero,0x1,0x1
9d00a660:	1000ffc9 	b	9d00a588 <__fmt_d+0x70>
9d00a664:	8fa20020 	lw	v0,32(sp)

Disassembly of section .text.__cvt_u:

9d00a668 <__cvt_u>:
9d00a668:	8c820004 	lw	v0,4(a0)
9d00a66c:	27bdffc0 	addiu	sp,sp,-64
9d00a670:	afbe0038 	sw	s8,56(sp)
9d00a674:	afb40028 	sw	s4,40(sp)
9d00a678:	afb20020 	sw	s2,32(sp)
9d00a67c:	afb1001c 	sw	s1,28(sp)
9d00a680:	afbf003c 	sw	ra,60(sp)
9d00a684:	afb70034 	sw	s7,52(sp)
9d00a688:	afb60030 	sw	s6,48(sp)
9d00a68c:	afb5002c 	sw	s5,44(sp)
9d00a690:	afb30024 	sw	s3,36(sp)
9d00a694:	afb00018 	sw	s0,24(sp)
9d00a698:	00c08825 	move	s1,a2
9d00a69c:	00e09025 	move	s2,a3
9d00a6a0:	8fb40054 	lw	s4,84(sp)
9d00a6a4:	04410002 	bgez	v0,9d00a6b0 <__cvt_u+0x48>
9d00a6a8:	8fbe0058 	lw	s8,88(sp)
9d00a6ac:	24020001 	li	v0,1
9d00a6b0:	8c900010 	lw	s0,16(a0)
9d00a6b4:	8c95000c 	lw	s5,12(a0)
9d00a6b8:	8fd70000 	lw	s7,0(s8)
9d00a6bc:	8fb30050 	lw	s3,80(sp)
9d00a6c0:	2610ffff 	addiu	s0,s0,-1
9d00a6c4:	02b01821 	addu	v1,s5,s0
9d00a6c8:	a0600000 	sb	zero,0(v1)
9d00a6cc:	24090001 	li	t1,1
9d00a6d0:	00534023 	subu	t0,v0,s3
9d00a6d4:	32f70002 	andi	s7,s7,0x2
9d00a6d8:	0014b7c3 	sra	s6,s4,0x1f
9d00a6dc:	1e000010 	bgtz	s0,9d00a720 <__cvt_u+0xb8>
9d00a6e0:	02321025 	or	v0,s1,s2
9d00a6e4:	5120002c 	beqzl	t1,9d00a798 <__cvt_u+0x130>
9d00a6e8:	8fc20000 	lw	v0,0(s8)
9d00a6ec:	8fbf003c 	lw	ra,60(sp)
9d00a6f0:	02001025 	move	v0,s0
9d00a6f4:	8fbe0038 	lw	s8,56(sp)
9d00a6f8:	8fb70034 	lw	s7,52(sp)
9d00a6fc:	8fb60030 	lw	s6,48(sp)
9d00a700:	8fb5002c 	lw	s5,44(sp)
9d00a704:	8fb40028 	lw	s4,40(sp)
9d00a708:	8fb30024 	lw	s3,36(sp)
9d00a70c:	8fb20020 	lw	s2,32(sp)
9d00a710:	8fb1001c 	lw	s1,28(sp)
9d00a714:	8fb00018 	lw	s0,24(sp)
9d00a718:	03e00008 	jr	ra
9d00a71c:	27bd0040 	addiu	sp,sp,64
9d00a720:	14400007 	bnez	v0,9d00a740 <__cvt_u+0xd8>
9d00a724:	01131021 	addu	v0,t0,s3
9d00a728:	1c400006 	bgtz	v0,9d00a744 <__cvt_u+0xdc>
9d00a72c:	02202025 	move	a0,s1
9d00a730:	1a60ffec 	blez	s3,9d00a6e4 <__cvt_u+0x7c>
9d00a734:	00000000 	nop
9d00a738:	12e0ffea 	beqz	s7,9d00a6e4 <__cvt_u+0x7c>
9d00a73c:	00000000 	nop
9d00a740:	02202025 	move	a0,s1
9d00a744:	02402825 	move	a1,s2
9d00a748:	02803025 	move	a2,s4
9d00a74c:	02c03825 	move	a3,s6
9d00a750:	afa80014 	sw	t0,20(sp)
9d00a754:	0f4025fd 	jal	9d0097f4 <__umoddi3>
9d00a758:	2610ffff 	addiu	s0,s0,-1
9d00a75c:	afa20010 	sw	v0,16(sp)
9d00a760:	02b01821 	addu	v1,s5,s0
9d00a764:	24420030 	addiu	v0,v0,48
9d00a768:	02202025 	move	a0,s1
9d00a76c:	02402825 	move	a1,s2
9d00a770:	a0620000 	sb	v0,0(v1)
9d00a774:	02803025 	move	a2,s4
9d00a778:	0f40250e 	jal	9d009438 <__udivdi3>
9d00a77c:	02c03825 	move	a3,s6
9d00a780:	2673ffff 	addiu	s3,s3,-1
9d00a784:	00408825 	move	s1,v0
9d00a788:	00609025 	move	s2,v1
9d00a78c:	8fa80014 	lw	t0,20(sp)
9d00a790:	1000ffd2 	b	9d00a6dc <__cvt_u+0x74>
9d00a794:	8fa90010 	lw	t1,16(sp)
9d00a798:	7c022104 	ins	v0,zero,0x4,0x1
9d00a79c:	1000ffd3 	b	9d00a6ec <__cvt_u+0x84>
9d00a7a0:	afc20000 	sw	v0,0(s8)

Disassembly of section .text.dpcmp:

9d00a7a4 <__eqdf2>:
9d00a7a4:	2409fffe 00055040 00075840 01645825     ...$@P..@X..%Xd.
9d00a7b4:	01665825 014b5025 15400003 00000000     %Xf.%PK...@.....
9d00a7c4:	1000003c 24020000                       <......$

9d00a7cc <i56>:
9d00a7cc:	10800002 	beqz	a0,9d00a7d8 <i57>
9d00a7d0:	00054040 	sll	t0,a1,0x1
9d00a7d4:	25080001 	addiu	t0,t0,1

9d00a7d8 <i57>:
9d00a7d8:	3c01ffe0 	lui	at,0xffe0
9d00a7dc:	34210001 	ori	at,at,0x1
9d00a7e0:	0101082b 	sltu	at,t0,at
9d00a7e4:	10200037 	beqz	at,9d00a8c4 <Lnan>
9d00a7e8:	00000000 	nop
9d00a7ec:	10c00002 	beqz	a2,9d00a7f8 <i58>
9d00a7f0:	00074040 	sll	t0,a3,0x1
9d00a7f4:	25080001 	addiu	t0,t0,1

9d00a7f8 <i58>:
9d00a7f8:	3c01ffe0 	lui	at,0xffe0
9d00a7fc:	34210001 	ori	at,at,0x1
9d00a800:	0101082b 	sltu	at,t0,at
9d00a804:	1020002f 	beqz	at,9d00a8c4 <Lnan>
9d00a808:	00000000 	nop
9d00a80c:	04a10016 	bgez	a1,9d00a868 <i59>
9d00a810:	00000000 	nop
9d00a814:	04e00003 	bltz	a3,9d00a824 <i60>
9d00a818:	00000000 	nop
9d00a81c:	10000026 	b	9d00a8b8 <L999>
9d00a820:	2402ffff 	li	v0,-1

9d00a824 <i60>:
9d00a824:	0086502b 	sltu	t2,a0,a2
9d00a828:	00862023 	subu	a0,a0,a2
9d00a82c:	00aa582b 	sltu	t3,a1,t2
9d00a830:	00aa2823 	subu	a1,a1,t2
9d00a834:	00a7502b 	sltu	t2,a1,a3
9d00a838:	014b5025 	or	t2,t2,t3
9d00a83c:	11400003 	beqz	t2,9d00a84c <i61>
9d00a840:	00a72823 	subu	a1,a1,a3
9d00a844:	1000001c 	b	9d00a8b8 <L999>
9d00a848:	24020001 	li	v0,1

9d00a84c <i61>:
9d00a84c:	00a45025 	or	t2,a1,a0
9d00a850:	11400003 	beqz	t2,9d00a860 <i62>
9d00a854:	00000000 	nop
9d00a858:	10000017 	b	9d00a8b8 <L999>
9d00a85c:	2402ffff 	li	v0,-1

9d00a860 <i62>:
9d00a860:	10000015 	b	9d00a8b8 <L999>
9d00a864:	24020000 	li	v0,0

9d00a868 <i59>:
9d00a868:	04e10003 	bgez	a3,9d00a878 <i63>
9d00a86c:	00000000 	nop
9d00a870:	10000011 	b	9d00a8b8 <L999>
9d00a874:	24020001 	li	v0,1

9d00a878 <i63>:
9d00a878:	0086502b 	sltu	t2,a0,a2
9d00a87c:	00862023 	subu	a0,a0,a2
9d00a880:	00aa582b 	sltu	t3,a1,t2
9d00a884:	00aa2823 	subu	a1,a1,t2
9d00a888:	00a7502b 	sltu	t2,a1,a3
9d00a88c:	014b5025 	or	t2,t2,t3
9d00a890:	11400003 	beqz	t2,9d00a8a0 <i64>
9d00a894:	00a72823 	subu	a1,a1,a3
9d00a898:	10000007 	b	9d00a8b8 <L999>
9d00a89c:	2402ffff 	li	v0,-1

9d00a8a0 <i64>:
9d00a8a0:	00a45025 	or	t2,a1,a0
9d00a8a4:	11400003 	beqz	t2,9d00a8b4 <i65>
9d00a8a8:	00000000 	nop
9d00a8ac:	10000002 	b	9d00a8b8 <L999>
9d00a8b0:	24020001 	li	v0,1

9d00a8b4 <i65>:
9d00a8b4:	24020000 	li	v0,0

9d00a8b8 <L999>:
9d00a8b8:	03e00008 	jr	ra
9d00a8bc:	00000000 	nop
9d00a8c0:	00000000 	nop

9d00a8c4 <Lnan>:
9d00a8c4:	1000fffc 	b	9d00a8b8 <L999>
9d00a8c8:	00091025 	or	v0,zero,t1
9d00a8cc:	00000000 	nop

Disassembly of section .text.dfcmplt:

9d00a8d0 <dpcmplt>:
9d00a8d0:	2409fffe 	li	t1,-2
9d00a8d4:	00055040 	sll	t2,a1,0x1
9d00a8d8:	00075840 	sll	t3,a3,0x1
9d00a8dc:	01645825 	or	t3,t3,a0
9d00a8e0:	01665825 	or	t3,t3,a2
9d00a8e4:	014b5025 	or	t2,t2,t3
9d00a8e8:	15400003 	bnez	t2,9d00a8f8 <dpcmplt+0x28>
9d00a8ec:	00000000 	nop
9d00a8f0:	1000003c 	b	9d00a9e4 <dpcmplt+0x114>
9d00a8f4:	24020000 	li	v0,0
9d00a8f8:	10800002 	beqz	a0,9d00a904 <dpcmplt+0x34>
9d00a8fc:	00054040 	sll	t0,a1,0x1
9d00a900:	25080001 	addiu	t0,t0,1
9d00a904:	3c01ffe0 	lui	at,0xffe0
9d00a908:	34210001 	ori	at,at,0x1
9d00a90c:	0101082b 	sltu	at,t0,at
9d00a910:	10200037 	beqz	at,9d00a9f0 <dpcmplt+0x120>
9d00a914:	00000000 	nop
9d00a918:	10c00002 	beqz	a2,9d00a924 <dpcmplt+0x54>
9d00a91c:	00074040 	sll	t0,a3,0x1
9d00a920:	25080001 	addiu	t0,t0,1
9d00a924:	3c01ffe0 	lui	at,0xffe0
9d00a928:	34210001 	ori	at,at,0x1
9d00a92c:	0101082b 	sltu	at,t0,at
9d00a930:	1020002f 	beqz	at,9d00a9f0 <dpcmplt+0x120>
9d00a934:	00000000 	nop
9d00a938:	04a10016 	bgez	a1,9d00a994 <dpcmplt+0xc4>
9d00a93c:	00000000 	nop
9d00a940:	04e00003 	bltz	a3,9d00a950 <dpcmplt+0x80>
9d00a944:	00000000 	nop
9d00a948:	10000026 	b	9d00a9e4 <dpcmplt+0x114>
9d00a94c:	2402ffff 	li	v0,-1
9d00a950:	0086502b 	sltu	t2,a0,a2
9d00a954:	00862023 	subu	a0,a0,a2
9d00a958:	00aa582b 	sltu	t3,a1,t2
9d00a95c:	00aa2823 	subu	a1,a1,t2
9d00a960:	00a7502b 	sltu	t2,a1,a3
9d00a964:	014b5025 	or	t2,t2,t3
9d00a968:	11400003 	beqz	t2,9d00a978 <dpcmplt+0xa8>
9d00a96c:	00a72823 	subu	a1,a1,a3
9d00a970:	1000001c 	b	9d00a9e4 <dpcmplt+0x114>
9d00a974:	24020001 	li	v0,1
9d00a978:	00a45025 	or	t2,a1,a0
9d00a97c:	11400003 	beqz	t2,9d00a98c <dpcmplt+0xbc>
9d00a980:	00000000 	nop
9d00a984:	10000017 	b	9d00a9e4 <dpcmplt+0x114>
9d00a988:	2402ffff 	li	v0,-1
9d00a98c:	10000015 	b	9d00a9e4 <dpcmplt+0x114>
9d00a990:	24020000 	li	v0,0
9d00a994:	04e10003 	bgez	a3,9d00a9a4 <dpcmplt+0xd4>
9d00a998:	00000000 	nop
9d00a99c:	10000011 	b	9d00a9e4 <dpcmplt+0x114>
9d00a9a0:	24020001 	li	v0,1
9d00a9a4:	0086502b 	sltu	t2,a0,a2
9d00a9a8:	00862023 	subu	a0,a0,a2
9d00a9ac:	00aa582b 	sltu	t3,a1,t2
9d00a9b0:	00aa2823 	subu	a1,a1,t2
9d00a9b4:	00a7502b 	sltu	t2,a1,a3
9d00a9b8:	014b5025 	or	t2,t2,t3
9d00a9bc:	11400003 	beqz	t2,9d00a9cc <dpcmplt+0xfc>
9d00a9c0:	00a72823 	subu	a1,a1,a3
9d00a9c4:	10000007 	b	9d00a9e4 <dpcmplt+0x114>
9d00a9c8:	2402ffff 	li	v0,-1
9d00a9cc:	00a45025 	or	t2,a1,a0
9d00a9d0:	11400003 	beqz	t2,9d00a9e0 <dpcmplt+0x110>
9d00a9d4:	00000000 	nop
9d00a9d8:	10000002 	b	9d00a9e4 <dpcmplt+0x114>
9d00a9dc:	24020001 	li	v0,1
9d00a9e0:	24020000 	li	v0,0
9d00a9e4:	03e00008 	jr	ra
9d00a9e8:	00000000 	nop
9d00a9ec:	00000000 	nop
9d00a9f0:	1000fffc 	b	9d00a9e4 <dpcmplt+0x114>
9d00a9f4:	34020001 	li	v0,0x1
9d00a9f8:	00000000 	nop

Disassembly of section .text:

9d00a9fc <dpfloor>:
9d00a9fc:	3c018000 00a13024 00053840 00073d42     ...<$0..@8..B=..
9d00aa0c:	240107ff 10e1002b 00000000 24090433     ...$+.......3..$
9d00aa1c:	01273823 2ce10035 1420000b 00000000     #8'.5..,.. .....
9d00aa2c:	04e00020 00000000 10c0002d 00000000      .......-.......
9d00aa3c:	00054840 01244825 15200026 00000000     @H..%H$.&. .....
9d00aa4c:	10000027 00000000                       '.......

9d00aa54 <i1>:
9d00aa54:	10c00005 	beqz	a2,9d00aa6c <i3>
9d00aa58:	00000000 	nop
9d00aa5c:	0004482b 	sltu	t1,zero,a0
9d00aa60:	00042023 	negu	a0,a0
9d00aa64:	00052823 	negu	a1,a1
9d00aa68:	00a92823 	subu	a1,a1,t1

9d00aa6c <i3>:
9d00aa6c:	30e9001f 	andi	t1,a3,0x1f
9d00aa70:	24080001 	li	t0,1
9d00aa74:	01284004 	sllv	t0,t0,t1
9d00aa78:	00084023 	negu	t0,t0
9d00aa7c:	2ce10020 	sltiu	at,a3,32
9d00aa80:	14200004 	bnez	at,9d00aa94 <i4>
9d00aa84:	00000000 	nop
9d00aa88:	24040000 	li	a0,0
9d00aa8c:	10000002 	b	9d00aa98 <e4>
9d00aa90:	00a82824 	and	a1,a1,t0

9d00aa94 <i4>:
9d00aa94:	00882024 	and	a0,a0,t0

9d00aa98 <e4>:
9d00aa98:	10c00005 	beqz	a2,9d00aab0 <Aret>
9d00aa9c:	00000000 	nop
9d00aaa0:	0004482b 	sltu	t1,zero,a0
9d00aaa4:	00042023 	negu	a0,a0
9d00aaa8:	00052823 	negu	a1,a1
9d00aaac:	00a92823 	subu	a1,a1,t1

9d00aab0 <Aret>:
9d00aab0:	00041025 	or	v0,zero,a0
9d00aab4:	00051825 	or	v1,zero,a1

9d00aab8 <A999>:
9d00aab8:	03e00008 	jr	ra
9d00aabc:	00000000 	nop

9d00aac0 <Aspec>:
9d00aac0:	3c01000f 	lui	at,0xf
9d00aac4:	3421ffff 	ori	at,at,0xffff
9d00aac8:	00a14824 	and	t1,a1,at
9d00aacc:	01244825 	or	t1,t1,a0
9d00aad0:	15200009 	bnez	t1,9d00aaf8 <Anan>
9d00aad4:	00000000 	nop
9d00aad8:	1000fff5 	b	9d00aab0 <Aret>
9d00aadc:	00000000 	nop

9d00aae0 <Amin1>:
9d00aae0:	3c05bff0 	lui	a1,0xbff0
9d00aae4:	1000fff2 	b	9d00aab0 <Aret>
9d00aae8:	24040000 	li	a0,0

9d00aaec <Azer>:
9d00aaec:	00062825 	or	a1,zero,a2
9d00aaf0:	1000ffef 	b	9d00aab0 <Aret>
9d00aaf4:	24040000 	li	a0,0

9d00aaf8 <Anan>:
9d00aaf8:	3c05fff8 	lui	a1,0xfff8
9d00aafc:	1000ffec 	b	9d00aab0 <Aret>
9d00ab00:	24040000 	li	a0,0

Disassembly of section .text.__pad:

9d00ab04 <__pad>:
9d00ab04:	27bdffc0 	addiu	sp,sp,-64
9d00ab08:	afb3002c 	sw	s3,44(sp)
9d00ab0c:	8fb30050 	lw	s3,80(sp)
9d00ab10:	afb60038 	sw	s6,56(sp)
9d00ab14:	afb40030 	sw	s4,48(sp)
9d00ab18:	32730001 	andi	s3,s3,0x1
9d00ab1c:	afb20028 	sw	s2,40(sp)
9d00ab20:	afb10024 	sw	s1,36(sp)
9d00ab24:	afb00020 	sw	s0,32(sp)
9d00ab28:	afbf003c 	sw	ra,60(sp)
9d00ab2c:	afb50034 	sw	s5,52(sp)
9d00ab30:	00809025 	move	s2,a0
9d00ab34:	00a0b025 	move	s6,a1
9d00ab38:	00c08025 	move	s0,a2
9d00ab3c:	00e08825 	move	s1,a3
9d00ab40:	16600003 	bnez	s3,9d00ab50 <__pad+0x4c>
9d00ab44:	00c7a02b 	sltu	s4,a2,a3
9d00ab48:	56800013 	bnezl	s4,9d00ab98 <__pad+0x94>
9d00ab4c:	0230a023 	subu	s4,s1,s0
9d00ab50:	02003025 	move	a2,s0
9d00ab54:	02c02825 	move	a1,s6
9d00ab58:	0f402d1a 	jal	9d00b468 <__out>
9d00ab5c:	02402025 	move	a0,s2
9d00ab60:	1680000d 	bnez	s4,9d00ab98 <__pad+0x94>
9d00ab64:	0230a023 	subu	s4,s1,s0
9d00ab68:	02008825 	move	s1,s0
9d00ab6c:	8fbf003c 	lw	ra,60(sp)
9d00ab70:	02201025 	move	v0,s1
9d00ab74:	8fb60038 	lw	s6,56(sp)
9d00ab78:	8fb50034 	lw	s5,52(sp)
9d00ab7c:	8fb40030 	lw	s4,48(sp)
9d00ab80:	8fb3002c 	lw	s3,44(sp)
9d00ab84:	8fb20028 	lw	s2,40(sp)
9d00ab88:	8fb10024 	lw	s1,36(sp)
9d00ab8c:	8fb00020 	lw	s0,32(sp)
9d00ab90:	03e00008 	jr	ra
9d00ab94:	27bd0040 	addiu	sp,sp,64
9d00ab98:	2e860011 	sltiu	a2,s4,17
9d00ab9c:	24020010 	li	v0,16
9d00aba0:	0286100b 	movn	v0,s4,a2
9d00aba4:	00403025 	move	a2,v0
9d00aba8:	24050020 	li	a1,32
9d00abac:	27a40010 	addiu	a0,sp,16
9d00abb0:	0f402e24 	jal	9d00b890 <memset>
9d00abb4:	0280a825 	move	s5,s4
9d00abb8:	2ea20010 	sltiu	v0,s5,16
9d00abbc:	1040000b 	beqz	v0,9d00abec <__pad+0xe8>
9d00abc0:	3286000f 	andi	a2,s4,0xf
9d00abc4:	27a50010 	addiu	a1,sp,16
9d00abc8:	0f402d1a 	jal	9d00b468 <__out>
9d00abcc:	02402025 	move	a0,s2
9d00abd0:	1660ffe6 	bnez	s3,9d00ab6c <__pad+0x68>
9d00abd4:	02003025 	move	a2,s0
9d00abd8:	02c02825 	move	a1,s6
9d00abdc:	0f402d1a 	jal	9d00b468 <__out>
9d00abe0:	02402025 	move	a0,s2
9d00abe4:	1000ffe2 	b	9d00ab70 <__pad+0x6c>
9d00abe8:	8fbf003c 	lw	ra,60(sp)
9d00abec:	24060010 	li	a2,16
9d00abf0:	27a50010 	addiu	a1,sp,16
9d00abf4:	0f402d1a 	jal	9d00b468 <__out>
9d00abf8:	02402025 	move	a0,s2
9d00abfc:	1000ffee 	b	9d00abb8 <__pad+0xb4>
9d00ac00:	26b5fff0 	addiu	s5,s5,-16

Disassembly of section .text.dptofp:

9d00ac04 <__truncdfsf2>:
9d00ac04:	00053ac0 00045d42 00eb3825 000432c0     .:..B]..%8...2..
9d00ac14:	3c018000 00e13825 3c018000 00a14824     ...<%8.....<$H..
9d00ac24:	00054040 00084542 2508fc80 250bffff     @@..BE.....%...%
9d00ac34:	2d6100fe 10200012 00000000              ..a-.. .....

9d00ac40 <Hlab1>:
9d00ac40:	10c00002 	beqz	a2,9d00ac4c <i45>
9d00ac44:	00000000 	nop
9d00ac48:	34e70001 	ori	a3,a3,0x1

9d00ac4c <i45>:
9d00ac4c:	24e70080 	addiu	a3,a3,128
9d00ac50:	2ceb0080 	sltiu	t3,a3,128
9d00ac54:	010b4021 	addu	t0,t0,t3
9d00ac58:	00075a02 	srl	t3,a3,0x8
9d00ac5c:	316b0001 	andi	t3,t3,0x1
9d00ac60:	00eb3823 	subu	a3,a3,t3
9d00ac64:	00073840 	sll	a3,a3,0x1
9d00ac68:	00073a42 	srl	a3,a3,0x9
9d00ac6c:	00085dc0 	sll	t3,t0,0x17
9d00ac70:	00eb3825 	or	a3,a3,t3
9d00ac74:	00e91025 	or	v0,a3,t1

9d00ac78 <H999>:
9d00ac78:	03e00008 	jr	ra
9d00ac7c:	00000000 	nop
9d00ac80:	00000000 	nop

9d00ac84 <Hspec>:
9d00ac84:	2401047f 	li	at,1151
9d00ac88:	15010007 	bne	t0,at,9d00aca8 <i46>
9d00ac8c:	00000000 	nop
9d00ac90:	00075840 	sll	t3,a3,0x1
9d00ac94:	01665825 	or	t3,t3,a2
9d00ac98:	11600003 	beqz	t3,9d00aca8 <i46>
9d00ac9c:	00000000 	nop
9d00aca0:	1000fff5 	b	9d00ac78 <H999>
9d00aca4:	3c02ffc0 	lui	v0,0xffc0

9d00aca8 <i46>:
9d00aca8:	290100ff 	slti	at,t0,255
9d00acac:	14200004 	bnez	at,9d00acc0 <i48>
9d00acb0:	00000000 	nop
9d00acb4:	3c017f80 	lui	at,0x7f80
9d00acb8:	1000ffef 	b	9d00ac78 <H999>
9d00acbc:	01211025 	or	v0,t1,at

9d00acc0 <i48>:
9d00acc0:	240a0001 	li	t2,1
9d00acc4:	01485023 	subu	t2,t2,t0
9d00acc8:	2d410020 	sltiu	at,t2,32
9d00accc:	14200003 	bnez	at,9d00acdc <i49>
9d00acd0:	00000000 	nop
9d00acd4:	1000ffe8 	b	9d00ac78 <H999>
9d00acd8:	00091025 	or	v0,zero,t1

9d00acdc <i49>:
9d00acdc:	240c0020 	li	t4,32
9d00ace0:	018a6023 	subu	t4,t4,t2
9d00ace4:	01875804 	sllv	t3,a3,t4
9d00ace8:	00cb3025 	or	a2,a2,t3
9d00acec:	01473806 	srlv	a3,a3,t2
9d00acf0:	24080000 	li	t0,0
9d00acf4:	3c018000 	lui	at,0x8000
9d00acf8:	1000ffd1 	b	9d00ac40 <Hlab1>
9d00acfc:	00e13825 	or	a3,a3,at
9d00ad00:	00000000 	nop

Disassembly of section .text.scalbn:

9d00ad04 <scalbn>:
9d00ad04:	27bdffe0 	addiu	sp,sp,-32
9d00ad08:	afb10014 	sw	s1,20(sp)
9d00ad0c:	00c08825 	move	s1,a2
9d00ad10:	28c60400 	slti	a2,a2,1024
9d00ad14:	afbf001c 	sw	ra,28(sp)
9d00ad18:	afb20018 	sw	s2,24(sp)
9d00ad1c:	14c0001f 	bnez	a2,9d00ad9c <scalbn+0x98>
9d00ad20:	afb00010 	sw	s0,16(sp)
9d00ad24:	3c129d00 	lui	s2,0x9d00
9d00ad28:	8e467590 	lw	a2,30096(s2)
9d00ad2c:	8e477594 	lw	a3,30100(s2)
9d00ad30:	0f4026eb 	jal	9d009bac <__muldf3>
9d00ad34:	2630fc01 	addiu	s0,s1,-1023
9d00ad38:	2a040400 	slti	a0,s0,1024
9d00ad3c:	14800009 	bnez	a0,9d00ad64 <scalbn+0x60>
9d00ad40:	8e467590 	lw	a2,30096(s2)
9d00ad44:	8e477594 	lw	a3,30100(s2)
9d00ad48:	00402025 	move	a0,v0
9d00ad4c:	00602825 	move	a1,v1
9d00ad50:	0f4026eb 	jal	9d009bac <__muldf3>
9d00ad54:	2630f802 	addiu	s0,s1,-2046
9d00ad58:	2a050400 	slti	a1,s0,1024
9d00ad5c:	240403ff 	li	a0,1023
9d00ad60:	0085800a 	movz	s0,a0,a1
9d00ad64:	261003ff 	addiu	s0,s0,1023
9d00ad68:	00102500 	sll	a0,s0,0x14
9d00ad6c:	00002825 	move	a1,zero
9d00ad70:	00a03025 	move	a2,a1
9d00ad74:	00803825 	move	a3,a0
9d00ad78:	00602825 	move	a1,v1
9d00ad7c:	0f4026eb 	jal	9d009bac <__muldf3>
9d00ad80:	00402025 	move	a0,v0
9d00ad84:	8fbf001c 	lw	ra,28(sp)
9d00ad88:	8fb20018 	lw	s2,24(sp)
9d00ad8c:	8fb10014 	lw	s1,20(sp)
9d00ad90:	8fb00010 	lw	s0,16(sp)
9d00ad94:	03e00008 	jr	ra
9d00ad98:	27bd0020 	addiu	sp,sp,32
9d00ad9c:	2a26fc02 	slti	a2,s1,-1022
9d00ada0:	00801025 	move	v0,a0
9d00ada4:	00a01825 	move	v1,a1
9d00ada8:	10c0ffee 	beqz	a2,9d00ad64 <scalbn+0x60>
9d00adac:	02208025 	move	s0,s1
9d00adb0:	3c129d00 	lui	s2,0x9d00
9d00adb4:	8e467598 	lw	a2,30104(s2)
9d00adb8:	8e47759c 	lw	a3,30108(s2)
9d00adbc:	0f4026eb 	jal	9d009bac <__muldf3>
9d00adc0:	263003c9 	addiu	s0,s1,969
9d00adc4:	2a04fc02 	slti	a0,s0,-1022
9d00adc8:	1080ffe6 	beqz	a0,9d00ad64 <scalbn+0x60>
9d00adcc:	8e467598 	lw	a2,30104(s2)
9d00add0:	8e47759c 	lw	a3,30108(s2)
9d00add4:	00402025 	move	a0,v0
9d00add8:	00602825 	move	a1,v1
9d00addc:	0f4026eb 	jal	9d009bac <__muldf3>
9d00ade0:	26300792 	addiu	s0,s1,1938
9d00ade4:	2a05fc02 	slti	a1,s0,-1022
9d00ade8:	2404fc02 	li	a0,-1022
9d00adec:	1000ffdd 	b	9d00ad64 <scalbn+0x60>
9d00adf0:	0085800b 	movn	s0,a0,a1

Disassembly of section .text.__pop_ptr:

9d00adf4 <__pop_ptr>:
9d00adf4:	24020084 	li	v0,132
9d00adf8:	50a20022 	beql	a1,v0,9d00ae84 <__pop_ptr+0x90>
9d00adfc:	8ce20000 	lw	v0,0(a3)
9d00ae00:	28a20085 	slti	v0,a1,133
9d00ae04:	10400010 	beqz	v0,9d00ae48 <__pop_ptr+0x54>
9d00ae08:	24020081 	li	v0,129
9d00ae0c:	50a20008 	beql	a1,v0,9d00ae30 <__pop_ptr+0x3c>
9d00ae10:	8ce20000 	lw	v0,0(a3)
9d00ae14:	24020082 	li	v0,130
9d00ae18:	50a20027 	beql	a1,v0,9d00aeb8 <__pop_ptr+0xc4>
9d00ae1c:	8ce20000 	lw	v0,0(a3)
9d00ae20:	24020080 	li	v0,128
9d00ae24:	14a20010 	bne	a1,v0,9d00ae68 <__pop_ptr+0x74>
9d00ae28:	00000000 	nop
9d00ae2c:	8ce20000 	lw	v0,0(a3)
9d00ae30:	24430004 	addiu	v1,v0,4
9d00ae34:	ace30000 	sw	v1,0(a3)
9d00ae38:	8c420000 	lw	v0,0(v0)
9d00ae3c:	ac820000 	sw	v0,0(a0)
9d00ae40:	10000015 	b	9d00ae98 <__pop_ptr+0xa4>
9d00ae44:	ac460000 	sw	a2,0(v0)
9d00ae48:	24020090 	li	v0,144
9d00ae4c:	50a2001a 	beql	a1,v0,9d00aeb8 <__pop_ptr+0xc4>
9d00ae50:	8ce20000 	lw	v0,0(a3)
9d00ae54:	28a20091 	slti	v0,a1,145
9d00ae58:	10400005 	beqz	v0,9d00ae70 <__pop_ptr+0x7c>
9d00ae5c:	24020088 	li	v0,136
9d00ae60:	50a2000f 	beql	a1,v0,9d00aea0 <__pop_ptr+0xac>
9d00ae64:	8ce20000 	lw	v0,0(a3)
9d00ae68:	03e00008 	jr	ra
9d00ae6c:	00001025 	move	v0,zero
9d00ae70:	240200a0 	li	v0,160
9d00ae74:	50a2ffee 	beql	a1,v0,9d00ae30 <__pop_ptr+0x3c>
9d00ae78:	8ce20000 	lw	v0,0(a3)
9d00ae7c:	1000ffe9 	b	9d00ae24 <__pop_ptr+0x30>
9d00ae80:	240200c0 	li	v0,192
9d00ae84:	24430004 	addiu	v1,v0,4
9d00ae88:	ace30000 	sw	v1,0(a3)
9d00ae8c:	8c420000 	lw	v0,0(v0)
9d00ae90:	ac820000 	sw	v0,0(a0)
9d00ae94:	a4460000 	sh	a2,0(v0)
9d00ae98:	03e00008 	jr	ra
9d00ae9c:	24020001 	li	v0,1
9d00aea0:	24430004 	addiu	v1,v0,4
9d00aea4:	ace30000 	sw	v1,0(a3)
9d00aea8:	8c420000 	lw	v0,0(v0)
9d00aeac:	ac820000 	sw	v0,0(a0)
9d00aeb0:	1000fff9 	b	9d00ae98 <__pop_ptr+0xa4>
9d00aeb4:	a0460000 	sb	a2,0(v0)
9d00aeb8:	24430004 	addiu	v1,v0,4
9d00aebc:	ace30000 	sw	v1,0(a3)
9d00aec0:	8c420000 	lw	v0,0(v0)
9d00aec4:	ac820000 	sw	v0,0(a0)
9d00aec8:	ac460000 	sw	a2,0(v0)
9d00aecc:	000637c3 	sra	a2,a2,0x1f
9d00aed0:	1000fff1 	b	9d00ae98 <__pop_ptr+0xa4>
9d00aed4:	ac460004 	sw	a2,4(v0)

Disassembly of section .text.general_exception:

9d00aed8 <_general_exception_context>:
9d00aed8:	27bdffa8 	addiu	sp,sp,-88
9d00aedc:	afa10004 	sw	at,4(sp)
9d00aee0:	afa20008 	sw	v0,8(sp)
9d00aee4:	afa3000c 	sw	v1,12(sp)
9d00aee8:	afa40010 	sw	a0,16(sp)
9d00aeec:	afa50014 	sw	a1,20(sp)
9d00aef0:	afa60018 	sw	a2,24(sp)
9d00aef4:	afa7001c 	sw	a3,28(sp)
9d00aef8:	afa80020 	sw	t0,32(sp)
9d00aefc:	afa90024 	sw	t1,36(sp)
9d00af00:	afaa0028 	sw	t2,40(sp)
9d00af04:	afab002c 	sw	t3,44(sp)
9d00af08:	afac0030 	sw	t4,48(sp)
9d00af0c:	afad0034 	sw	t5,52(sp)
9d00af10:	afae0038 	sw	t6,56(sp)
9d00af14:	afaf003c 	sw	t7,60(sp)
9d00af18:	afb80040 	sw	t8,64(sp)
9d00af1c:	afb90044 	sw	t9,68(sp)
9d00af20:	afbf0048 	sw	ra,72(sp)
9d00af24:	00004012 	mflo	t0
9d00af28:	afa8004c 	sw	t0,76(sp)
9d00af2c:	00004010 	mfhi	t0
9d00af30:	afa80050 	sw	t0,80(sp)
9d00af34:	3c1a9d01 	lui	k0,0x9d01
9d00af38:	275ab608 	addiu	k0,k0,-18936
9d00af3c:	00000000 	nop
9d00af40:	40046800 	mfc0	a0,c0_cause
9d00af44:	40056000 	mfc0	a1,c0_status
9d00af48:	0340f809 	jalr	k0
9d00af4c:	00000000 	nop
9d00af50:	8fa80050 	lw	t0,80(sp)
9d00af54:	01000011 	mthi	t0
9d00af58:	8fa8004c 	lw	t0,76(sp)
9d00af5c:	01000013 	mtlo	t0
9d00af60:	8fa10004 	lw	at,4(sp)
9d00af64:	8fa20008 	lw	v0,8(sp)
9d00af68:	8fa3000c 	lw	v1,12(sp)
9d00af6c:	8fa40010 	lw	a0,16(sp)
9d00af70:	8fa50014 	lw	a1,20(sp)
9d00af74:	8fa60018 	lw	a2,24(sp)
9d00af78:	8fa7001c 	lw	a3,28(sp)
9d00af7c:	8fa80020 	lw	t0,32(sp)
9d00af80:	8fa90024 	lw	t1,36(sp)
9d00af84:	8faa0028 	lw	t2,40(sp)
9d00af88:	8fab002c 	lw	t3,44(sp)
9d00af8c:	8fac0030 	lw	t4,48(sp)
9d00af90:	8fad0034 	lw	t5,52(sp)
9d00af94:	8fae0038 	lw	t6,56(sp)
9d00af98:	8faf003c 	lw	t7,60(sp)
9d00af9c:	8fb80040 	lw	t8,64(sp)
9d00afa0:	8fb90044 	lw	t9,68(sp)
9d00afa4:	8fbf0048 	lw	ra,72(sp)
9d00afa8:	27bd0058 	addiu	sp,sp,88
9d00afac:	000000c0 	ehb
9d00afb0:	42000018 	eret

Disassembly of section .text.fptodp:

9d00afb4 <__extendsfdf2>:
9d00afb4:	00043dc2 30e700ff 3c018000 00813024     .=.....0...<$0..
9d00afc4:	24e9ffff 2d2100fe 1020000d 00000000     ...$..!-.. .....

9d00afd4 <Glab1>:
9d00afd4:	24e70380 	addiu	a3,a3,896
9d00afd8:	00044a40 	sll	t1,a0,0x9
9d00afdc:	00094b02 	srl	t1,t1,0xc
9d00afe0:	00c93025 	or	a2,a2,t1
9d00afe4:	00042f40 	sll	a1,a0,0x1d

9d00afe8 <Gret>:
9d00afe8:	00074d00 	sll	t1,a3,0x14
9d00afec:	00c93025 	or	a2,a2,t1
9d00aff0:	00051025 	or	v0,zero,a1
9d00aff4:	00061825 	or	v1,zero,a2

9d00aff8 <G999>:
9d00aff8:	03e00008 	jr	ra
9d00affc:	00000000 	nop
9d00b000:	00000000 	nop

9d00b004 <Gspec>:
9d00b004:	24050000 	li	a1,0
9d00b008:	00842021 	addu	a0,a0,a0
9d00b00c:	1080fff6 	beqz	a0,9d00afe8 <Gret>
9d00b010:	00000000 	nop
9d00b014:	14e00009 	bnez	a3,9d00b03c <i42>
9d00b018:	00000000 	nop

9d00b01c <b43>:
9d00b01c:	24e7ffff 	addiu	a3,a3,-1
9d00b020:	00842021 	addu	a0,a0,a0
9d00b024:	3c010080 	lui	at,0x80
9d00b028:	0081082b 	sltu	at,a0,at
9d00b02c:	1420fffb 	bnez	at,9d00b01c <b43>
9d00b030:	00000000 	nop
9d00b034:	1000ffe7 	b	9d00afd4 <Glab1>
9d00b038:	00000000 	nop

9d00b03c <i42>:
9d00b03c:	240707ff 	li	a3,2047
9d00b040:	3c01ff00 	lui	at,0xff00
9d00b044:	34210001 	ori	at,at,0x1
9d00b048:	0081082b 	sltu	at,a0,at
9d00b04c:	1420ffe6 	bnez	at,9d00afe8 <Gret>
9d00b050:	00000000 	nop
9d00b054:	1000ffe4 	b	9d00afe8 <Gret>
9d00b058:	3c06fff8 	lui	a2,0xfff8
9d00b05c:	00000000 	nop

Disassembly of section .text.normalize:

9d00b060 <normalize>:
9d00b060:	27bdffe0 	addiu	sp,sp,-32
9d00b064:	afb10018 	sw	s1,24(sp)
9d00b068:	00078d02 	srl	s1,a3,0x14
9d00b06c:	322507ff 	andi	a1,s1,0x7ff
9d00b070:	afb00014 	sw	s0,20(sp)
9d00b074:	afbf001c 	sw	ra,28(sp)
9d00b078:	00808025 	move	s0,a0
9d00b07c:	00c01025 	move	v0,a2
9d00b080:	14a0000e 	bnez	a1,9d00b0bc <normalize+0x5c>
9d00b084:	00e02025 	move	a0,a3
9d00b088:	3c029d00 	lui	v0,0x9d00
9d00b08c:	00c04025 	move	t0,a2
9d00b090:	00e01825 	move	v1,a3
9d00b094:	8c467570 	lw	a2,30064(v0)
9d00b098:	8c477574 	lw	a3,30068(v0)
9d00b09c:	01002025 	move	a0,t0
9d00b0a0:	0f4026eb 	jal	9d009bac <__muldf3>
9d00b0a4:	00602825 	move	a1,v1
9d00b0a8:	00602025 	move	a0,v1
9d00b0ac:	7c635500 	ext	v1,v1,0x14,0xb
9d00b0b0:	10600002 	beqz	v1,9d00b0bc <normalize+0x5c>
9d00b0b4:	24050800 	li	a1,2048
9d00b0b8:	2465ffc1 	addiu	a1,v1,-63
9d00b0bc:	000237c2 	srl	a2,v0,0x1f
9d00b0c0:	00041840 	sll	v1,a0,0x1
9d00b0c4:	00021040 	sll	v0,v0,0x1
9d00b0c8:	00c31825 	or	v1,a2,v1
9d00b0cc:	8fbf001c 	lw	ra,28(sp)
9d00b0d0:	ae020000 	sw	v0,0(s0)
9d00b0d4:	7c63a000 	ext	v1,v1,0x0,0x15
9d00b0d8:	3c020020 	lui	v0,0x20
9d00b0dc:	00431825 	or	v1,v0,v1
9d00b0e0:	32310800 	andi	s1,s1,0x800
9d00b0e4:	24a5fbcc 	addiu	a1,a1,-1076
9d00b0e8:	ae11000c 	sw	s1,12(s0)
9d00b0ec:	02001025 	move	v0,s0
9d00b0f0:	ae030004 	sw	v1,4(s0)
9d00b0f4:	ae050008 	sw	a1,8(s0)
9d00b0f8:	8fb10018 	lw	s1,24(sp)
9d00b0fc:	8fb00014 	lw	s0,20(sp)
9d00b100:	03e00008 	jr	ra
9d00b104:	27bd0020 	addiu	sp,sp,32

Disassembly of section .text.dptoli:

9d00b108 <__fixdfsi>:
9d00b108:	00053ac0 00045542 00ea3825 3c018000     .:..BU..%8.....<
9d00b118:	00e13825 00055040 000a5542 2406041e     %8..@P..BU.....$
9d00b128:	00ca3023 18c0000c 00000000 2cc10020     #0.......... ..,
9d00b138:	14200002 00000000 34070000              .. ........4

9d00b144 <L42>:
9d00b144:	04a10002 	bgez	a1,9d00b150 <i50>
9d00b148:	00c73806 	srlv	a3,a3,a2
9d00b14c:	00073823 	negu	a3,a3

9d00b150 <i50>:
9d00b150:	00071025 	or	v0,zero,a3

9d00b154 <I999>:
9d00b154:	03e00008 	jr	ra
9d00b158:	00000000 	nop
9d00b15c:	00000000 	nop

9d00b160 <Inaninf>:
9d00b160:	10800002 	beqz	a0,9d00b16c <i51>
9d00b164:	00000000 	nop
9d00b168:	34a50001 	ori	a1,a1,0x1

9d00b16c <i51>:
9d00b16c:	3c017ff0 	lui	at,0x7ff0
9d00b170:	34210001 	ori	at,at,0x1
9d00b174:	00a1082b 	sltu	at,a1,at
9d00b178:	14200003 	bnez	at,9d00b188 <i52>
9d00b17c:	00000000 	nop
9d00b180:	1000fff4 	b	9d00b154 <I999>
9d00b184:	3c028000 	lui	v0,0x8000

9d00b188 <i52>:
9d00b188:	3c027fff 	lui	v0,0x7fff
9d00b18c:	1000fff1 	b	9d00b154 <I999>
9d00b190:	3442ffff 	ori	v0,v0,0xffff
9d00b194:	00000000 	nop

Disassembly of section .text.__vsnprintf:

9d00b198 <__vsnprintf>:
9d00b198:	27bdffc8 	addiu	sp,sp,-56
9d00b19c:	2403ffff 	li	v1,-1
9d00b1a0:	afa30010 	sw	v1,16(sp)
9d00b1a4:	24030102 	li	v1,258
9d00b1a8:	00a01025 	move	v0,a1
9d00b1ac:	afbf0034 	sw	ra,52(sp)
9d00b1b0:	00c02825 	move	a1,a2
9d00b1b4:	afa30014 	sw	v1,20(sp)
9d00b1b8:	14800002 	bnez	a0,9d00b1c4 <__vsnprintf+0x2c>
9d00b1bc:	00e03025 	move	a2,a3
9d00b1c0:	27a4002c 	addiu	a0,sp,44
9d00b1c4:	afa40018 	sw	a0,24(sp)
9d00b1c8:	afa2001c 	sw	v0,28(sp)
9d00b1cc:	10400002 	beqz	v0,9d00b1d8 <__vsnprintf+0x40>
9d00b1d0:	00001825 	move	v1,zero
9d00b1d4:	2443ffff 	addiu	v1,v0,-1
9d00b1d8:	04410008 	bgez	v0,9d00b1fc <__vsnprintf+0x64>
9d00b1dc:	afa30020 	sw	v1,32(sp)
9d00b1e0:	3c02a000 	lui	v0,0xa000
9d00b1e4:	2403004f 	li	v1,79
9d00b1e8:	ac430008 	sw	v1,8(v0)
9d00b1ec:	2402ffff 	li	v0,-1
9d00b1f0:	8fbf0034 	lw	ra,52(sp)
9d00b1f4:	03e00008 	jr	ra
9d00b1f8:	27bd0038 	addiu	sp,sp,56
9d00b1fc:	afa40028 	sw	a0,40(sp)
9d00b200:	afa40024 	sw	a0,36(sp)
9d00b204:	a0800000 	sb	zero,0(a0)
9d00b208:	0f402dd6 	jal	9d00b758 <__vfprintf>
9d00b20c:	27a40010 	addiu	a0,sp,16
9d00b210:	1000fff8 	b	9d00b1f4 <__vsnprintf+0x5c>
9d00b214:	8fbf0034 	lw	ra,52(sp)

Disassembly of section .text:

9d00b218 <__dinit_copy>:
9d00b218:	03e00008 	jr	ra
9d00b21c:	00000000 	nop

9d00b220 <__pic32_data_init>:
9d00b220:	03e01825 	move	v1,ra

9d00b224 <_dinit_init>:
9d00b224:	3c049d01 	lui	a0,0x9d01
9d00b228:	2484b9dc 	addiu	a0,a0,-17956
9d00b22c:	10800016 	beqz	a0,9d00b288 <_dinit_init+0x64>
9d00b230:	00000000 	nop
9d00b234:	8c850000 	lw	a1,0(a0)
9d00b238:	10a00013 	beqz	a1,9d00b288 <_dinit_init+0x64>
9d00b23c:	24840004 	addiu	a0,a0,4
9d00b240:	8c860000 	lw	a2,0(a0)
9d00b244:	24840004 	addiu	a0,a0,4
9d00b248:	848b0000 	lh	t3,0(a0)
9d00b24c:	24840004 	addiu	a0,a0,4
9d00b250:	3c0c9d01 	lui	t4,0x9d01
9d00b254:	258cb9c8 	addiu	t4,t4,-17976
9d00b258:	000b5880 	sll	t3,t3,0x2
9d00b25c:	016c6021 	addu	t4,t3,t4
9d00b260:	8d8c0000 	lw	t4,0(t4)
9d00b264:	0180f809 	jalr	t4
9d00b268:	00000000 	nop
9d00b26c:	00402025 	move	a0,v0
9d00b270:	24840003 	addiu	a0,a0,3
9d00b274:	2406fffc 	li	a2,-4
9d00b278:	00c42024 	and	a0,a2,a0
9d00b27c:	8c850000 	lw	a1,0(a0)
9d00b280:	14a0ffec 	bnez	a1,9d00b234 <_dinit_init+0x10>
9d00b284:	00000000 	nop
9d00b288:	0060f825 	move	ra,v1
9d00b28c:	03e00008 	jr	ra
9d00b290:	00000000 	nop

Disassembly of section .text.atoi:

9d00b294 <atoi>:
9d00b294:	24050020 	li	a1,32
9d00b298:	80820000 	lb	v0,0(a0)
9d00b29c:	1045000d 	beq	v0,a1,9d00b2d4 <atoi+0x40>
9d00b2a0:	2443fff7 	addiu	v1,v0,-9
9d00b2a4:	2c630005 	sltiu	v1,v1,5
9d00b2a8:	1460000a 	bnez	v1,9d00b2d4 <atoi+0x40>
9d00b2ac:	2403002b 	li	v1,43
9d00b2b0:	1043000a 	beq	v0,v1,9d00b2dc <atoi+0x48>
9d00b2b4:	2403002d 	li	v1,45
9d00b2b8:	14430003 	bne	v0,v1,9d00b2c8 <atoi+0x34>
9d00b2bc:	00002825 	move	a1,zero
9d00b2c0:	24050001 	li	a1,1
9d00b2c4:	24840001 	addiu	a0,a0,1
9d00b2c8:	00001025 	move	v0,zero
9d00b2cc:	10000007 	b	9d00b2ec <atoi+0x58>
9d00b2d0:	2407000a 	li	a3,10
9d00b2d4:	1000fff0 	b	9d00b298 <atoi+0x4>
9d00b2d8:	24840001 	addiu	a0,a0,1
9d00b2dc:	1000fff9 	b	9d00b2c4 <atoi+0x30>
9d00b2e0:	00002825 	move	a1,zero
9d00b2e4:	24840001 	addiu	a0,a0,1
9d00b2e8:	00431023 	subu	v0,v0,v1
9d00b2ec:	80830000 	lb	v1,0(a0)
9d00b2f0:	2463ffd0 	addiu	v1,v1,-48
9d00b2f4:	2c66000a 	sltiu	a2,v1,10
9d00b2f8:	54c0fffa 	bnezl	a2,9d00b2e4 <atoi+0x50>
9d00b2fc:	70471002 	mul	v0,v0,a3
9d00b300:	50a00001 	beqzl	a1,9d00b308 <atoi+0x74>
9d00b304:	00021023 	negu	v0,v0
9d00b308:	03e00008 	jr	ra
9d00b30c:	00000000 	nop

Disassembly of section .text.litodp:

9d00b310 <__floatsidf>:
9d00b310:	24050000 00054825 00053825 00043025     ...$%H..%8..%0..
9d00b320:	10c0000c 00000000 04c10006 00000000     ................
9d00b330:	3c098000 0005502b 00052823 00063023     ...<+P..#(..#0..
9d00b340:	00ca3023                                #0..

9d00b344 <i40>:
9d00b344:	2407041e 	li	a3,1054
9d00b348:	70c84020 	clz	t0,a2
9d00b34c:	00e83823 	subu	a3,a3,t0
9d00b350:	01063004 	sllv	a2,a2,t0

9d00b354 <i39>:
9d00b354:	000542c2 	srl	t0,a1,0xb
9d00b358:	00065540 	sll	t2,a2,0x15
9d00b35c:	010a4025 	or	t0,t0,t2
9d00b360:	00065040 	sll	t2,a2,0x1
9d00b364:	000a5302 	srl	t2,t2,0xc
9d00b368:	012a4825 	or	t1,t1,t2
9d00b36c:	00075500 	sll	t2,a3,0x14
9d00b370:	012a4825 	or	t1,t1,t2
9d00b374:	00081025 	or	v0,zero,t0
9d00b378:	00091825 	or	v1,zero,t1

9d00b37c <E999>:
9d00b37c:	03e00008 	jr	ra
9d00b380:	00000000 	nop
9d00b384:	00000000 	nop

Disassembly of section .text:

9d00b388 <__floatdidf>:
9d00b388:	27bdffe0 	addiu	sp,sp,-32
9d00b38c:	afb20018 	sw	s2,24(sp)
9d00b390:	00809025 	move	s2,a0
9d00b394:	00a02025 	move	a0,a1
9d00b398:	afbf001c 	sw	ra,28(sp)
9d00b39c:	afb10014 	sw	s1,20(sp)
9d00b3a0:	0f402cc4 	jal	9d00b310 <__floatsidf>
9d00b3a4:	afb00010 	sw	s0,16(sp)
9d00b3a8:	3c049d00 	lui	a0,0x9d00
9d00b3ac:	8c8675a0 	lw	a2,30112(a0)
9d00b3b0:	8c8775a4 	lw	a3,30116(a0)
9d00b3b4:	00602825 	move	a1,v1
9d00b3b8:	0f4026eb 	jal	9d009bac <__muldf3>
9d00b3bc:	00402025 	move	a0,v0
9d00b3c0:	02402025 	move	a0,s2
9d00b3c4:	00408025 	move	s0,v0
9d00b3c8:	0f402db7 	jal	9d00b6dc <__floatunsidf>
9d00b3cc:	00608825 	move	s1,v1
9d00b3d0:	00402025 	move	a0,v0
9d00b3d4:	02003025 	move	a2,s0
9d00b3d8:	02203825 	move	a3,s1
9d00b3dc:	0f402404 	jal	9d009010 <__adddf3>
9d00b3e0:	00602825 	move	a1,v1
9d00b3e4:	8fbf001c 	lw	ra,28(sp)
9d00b3e8:	8fb20018 	lw	s2,24(sp)
9d00b3ec:	8fb10014 	lw	s1,20(sp)
9d00b3f0:	8fb00010 	lw	s0,16(sp)
9d00b3f4:	03e00008 	jr	ra
9d00b3f8:	27bd0020 	addiu	sp,sp,32

Disassembly of section .text.a_clz_64:

9d00b3fc <a_clz_64>:
9d00b3fc:	24030020 	li	v1,32
9d00b400:	00a5200b 	movn	a0,a1,a1
9d00b404:	0005180b 	movn	v1,zero,a1
9d00b408:	00042c02 	srl	a1,a0,0x10
9d00b40c:	14a00004 	bnez	a1,9d00b420 <a_clz_64+0x24>
9d00b410:	00051202 	srl	v0,a1,0x8
9d00b414:	34630010 	ori	v1,v1,0x10
9d00b418:	00802825 	move	a1,a0
9d00b41c:	00051202 	srl	v0,a1,0x8
9d00b420:	14400004 	bnez	v0,9d00b434 <a_clz_64+0x38>
9d00b424:	00022102 	srl	a0,v0,0x4
9d00b428:	34630008 	ori	v1,v1,0x8
9d00b42c:	00a01025 	move	v0,a1
9d00b430:	00022102 	srl	a0,v0,0x4
9d00b434:	54800004 	bnezl	a0,9d00b448 <a_clz_64+0x4c>
9d00b438:	00041082 	srl	v0,a0,0x2
9d00b43c:	34630004 	ori	v1,v1,0x4
9d00b440:	00402025 	move	a0,v0
9d00b444:	00041082 	srl	v0,a0,0x2
9d00b448:	54400004 	bnezl	v0,9d00b45c <a_clz_64+0x60>
9d00b44c:	00021042 	srl	v0,v0,0x1
9d00b450:	34630002 	ori	v1,v1,0x2
9d00b454:	00801025 	move	v0,a0
9d00b458:	00021042 	srl	v0,v0,0x1
9d00b45c:	38420001 	xori	v0,v0,0x1
9d00b460:	03e00008 	jr	ra
9d00b464:	00431025 	or	v0,v0,v1

Disassembly of section .text.__string_out:

9d00b468 <__out>:
9d00b468:	8c820010 	lw	v0,16(a0)
9d00b46c:	27bdffe0 	addiu	sp,sp,-32
9d00b470:	afb00014 	sw	s0,20(sp)
9d00b474:	00808025 	move	s0,a0
9d00b478:	8c840014 	lw	a0,20(a0)
9d00b47c:	afb10018 	sw	s1,24(sp)
9d00b480:	00c2882b 	sltu	s1,a2,v0
9d00b484:	0051300a 	movz	a2,v0,s1
9d00b488:	afbf001c 	sw	ra,28(sp)
9d00b48c:	0f402e0f 	jal	9d00b83c <memcpy>
9d00b490:	00c08825 	move	s1,a2
9d00b494:	8e020014 	lw	v0,20(s0)
9d00b498:	8e060010 	lw	a2,16(s0)
9d00b49c:	00511021 	addu	v0,v0,s1
9d00b4a0:	00d18823 	subu	s1,a2,s1
9d00b4a4:	ae110010 	sw	s1,16(s0)
9d00b4a8:	ae020014 	sw	v0,20(s0)
9d00b4ac:	a0400000 	sb	zero,0(v0)
9d00b4b0:	8fbf001c 	lw	ra,28(sp)
9d00b4b4:	8fb10018 	lw	s1,24(sp)
9d00b4b8:	8fb00014 	lw	s0,20(sp)
9d00b4bc:	03e00008 	jr	ra
9d00b4c0:	27bd0020 	addiu	sp,sp,32

Disassembly of section .text.__fmt_state:

9d00b4c4 <__fmt_state>:
9d00b4c4:	3c069d01 	lui	a2,0x9d01
9d00b4c8:	00001025 	move	v0,zero
9d00b4cc:	24c6b998 	addiu	a2,a2,-18024
9d00b4d0:	00021840 	sll	v1,v0,0x1
9d00b4d4:	00661821 	addu	v1,v1,a2
9d00b4d8:	80670000 	lb	a3,0(v1)
9d00b4dc:	54e00003 	bnezl	a3,9d00b4ec <__fmt_state+0x28>
9d00b4e0:	8c850000 	lw	a1,0(a0)
9d00b4e4:	03e00008 	jr	ra
9d00b4e8:	90620001 	lbu	v0,1(v1)
9d00b4ec:	24420001 	addiu	v0,v0,1
9d00b4f0:	80a80000 	lb	t0,0(a1)
9d00b4f4:	15070004 	bne	t0,a3,9d00b508 <__fmt_state+0x44>
9d00b4f8:	304200ff 	andi	v0,v0,0xff
9d00b4fc:	90620001 	lbu	v0,1(v1)
9d00b500:	24a50001 	addiu	a1,a1,1
9d00b504:	ac850000 	sw	a1,0(a0)
9d00b508:	2c43000b 	sltiu	v1,v0,11
9d00b50c:	1460fff1 	bnez	v1,9d00b4d4 <__fmt_state+0x10>
9d00b510:	00021840 	sll	v1,v0,0x1
9d00b514:	03e00008 	jr	ra
9d00b518:	00000000 	nop

Disassembly of section .text.main_entry:

9d00b51c <_main_entry>:
9d00b51c:	3c040000 	lui	a0,0x0
9d00b520:	27bdffe8 	addiu	sp,sp,-24
9d00b524:	24840000 	addiu	a0,a0,0
9d00b528:	10800003 	beqz	a0,9d00b538 <_main_entry+0x1c>
9d00b52c:	afbf0014 	sw	ra,20(sp)
9d00b530:	0080f809 	jalr	a0
9d00b534:	00000000 	nop
9d00b538:	30840000 	andi	a0,a0,0x0
9d00b53c:	30a50000 	andi	a1,a1,0x0
9d00b540:	3c089d01 	lui	t0,0x9d01
9d00b544:	2508a0ec 	addiu	t0,t0,-24340
9d00b548:	0100f809 	jalr	t0
9d00b54c:	00000000 	nop

9d00b550 <__crt0_exit>:
9d00b550:	3c020000 24420000 10400003 00000000     ...<..B$..@.....
9d00b560:	0040f809 00000000 1000fff9 00000000     ..@.............

Disassembly of section .text.__pop_float:

9d00b570 <__pop_float>:
9d00b570:	28a30080 	slti	v1,a1,128
9d00b574:	14600010 	bnez	v1,9d00b5b8 <__pop_float+0x48>
9d00b578:	00001025 	move	v0,zero
9d00b57c:	28a30082 	slti	v1,a1,130
9d00b580:	14600003 	bnez	v1,9d00b590 <__pop_float+0x20>
9d00b584:	24030083 	li	v1,131
9d00b588:	14a3000b 	bne	a1,v1,9d00b5b8 <__pop_float+0x48>
9d00b58c:	00000000 	nop
9d00b590:	8cc20000 	lw	v0,0(a2)
9d00b594:	24420007 	addiu	v0,v0,7
9d00b598:	7c021004 	ins	v0,zero,0x0,0x3
9d00b59c:	24430008 	addiu	v1,v0,8
9d00b5a0:	acc30000 	sw	v1,0(a2)
9d00b5a4:	8c430004 	lw	v1,4(v0)
9d00b5a8:	8c420000 	lw	v0,0(v0)
9d00b5ac:	ac830004 	sw	v1,4(a0)
9d00b5b0:	ac820000 	sw	v0,0(a0)
9d00b5b4:	24020001 	li	v0,1
9d00b5b8:	03e00008 	jr	ra
9d00b5bc:	00000000 	nop

Disassembly of section .text._bootstrap_exception_handler:

9d00b5c0 <_bootstrap_exception_handler>:
9d00b5c0:	3c020000 	lui	v0,0x0
9d00b5c4:	24420000 	addiu	v0,v0,0
9d00b5c8:	10400005 	beqz	v0,9d00b5e0 <_bootstrap_exception_handler+0x20>
9d00b5cc:	3c020000 	lui	v0,0x0
9d00b5d0:	24420000 	addiu	v0,v0,0
9d00b5d4:	10400003 	beqz	v0,9d00b5e4 <_bootstrap_exception_handler+0x24>
9d00b5d8:	3c029d01 	lui	v0,0x9d01
9d00b5dc:	7000003f 	sdbbp
9d00b5e0:	3c029d01 	lui	v0,0x9d01
9d00b5e4:	2442b698 	addiu	v0,v0,-18792
9d00b5e8:	10400005 	beqz	v0,9d00b600 <_bootstrap_exception_handler+0x40>
9d00b5ec:	00000000 	nop
9d00b5f0:	27bdffe8 	addiu	sp,sp,-24
9d00b5f4:	afbf0014 	sw	ra,20(sp)
9d00b5f8:	0040f809 	jalr	v0
9d00b5fc:	00000000 	nop
9d00b600:	1000ffff 	b	9d00b600 <_bootstrap_exception_handler+0x40>
9d00b604:	00000000 	nop

Disassembly of section .text._general_exception_handler:

9d00b608 <_general_exception_handler>:
9d00b608:	3c020000 	lui	v0,0x0
9d00b60c:	24420000 	addiu	v0,v0,0
9d00b610:	10400005 	beqz	v0,9d00b628 <_general_exception_handler+0x20>
9d00b614:	3c020000 	lui	v0,0x0
9d00b618:	24420000 	addiu	v0,v0,0
9d00b61c:	10400003 	beqz	v0,9d00b62c <_general_exception_handler+0x24>
9d00b620:	3c029d01 	lui	v0,0x9d01
9d00b624:	7000003f 	sdbbp
9d00b628:	3c029d01 	lui	v0,0x9d01
9d00b62c:	2442b698 	addiu	v0,v0,-18792
9d00b630:	10400005 	beqz	v0,9d00b648 <_general_exception_handler+0x40>
9d00b634:	00000000 	nop
9d00b638:	27bdffe8 	addiu	sp,sp,-24
9d00b63c:	afbf0014 	sw	ra,20(sp)
9d00b640:	0040f809 	jalr	v0
9d00b644:	00000000 	nop
9d00b648:	1000ffff 	b	9d00b648 <_general_exception_handler+0x40>
9d00b64c:	00000000 	nop

Disassembly of section .vector_default:

9d00b650 <_DefaultInterrupt>:
9d00b650:	3c020000 	lui	v0,0x0
9d00b654:	24420000 	addiu	v0,v0,0
9d00b658:	10400007 	beqz	v0,9d00b678 <_DefaultInterrupt+0x28>
9d00b65c:	3c020000 	lui	v0,0x0
9d00b660:	24420000 	addiu	v0,v0,0
9d00b664:	50400005 	beqzl	v0,9d00b67c <_DefaultInterrupt+0x2c>
9d00b668:	3c029d01 	lui	v0,0x9d01
9d00b66c:	7000003f 	sdbbp
9d00b670:	03e00008 	jr	ra
9d00b674:	00000000 	nop
9d00b678:	3c029d01 	lui	v0,0x9d01
9d00b67c:	2442b698 	addiu	v0,v0,-18792
9d00b680:	10400003 	beqz	v0,9d00b690 <_DefaultInterrupt+0x40>
9d00b684:	00000000 	nop
9d00b688:	0040f809 	jalr	v0
9d00b68c:	00000000 	nop
9d00b690:	03e00008 	jr	ra
9d00b694:	00000000 	nop

Disassembly of section .text:

9d00b698 <__pic32_software_reset>:
9d00b698:	41606000 	di
9d00b69c:	000000c0 	ehb
9d00b6a0:	3c03aa99 	lui	v1,0xaa99
9d00b6a4:	3c02bf81 	lui	v0,0xbf81
9d00b6a8:	24636655 	addiu	v1,v1,26197
9d00b6ac:	ac40f230 	sw	zero,-3536(v0)
9d00b6b0:	ac43f230 	sw	v1,-3536(v0)
9d00b6b4:	3c035566 	lui	v1,0x5566
9d00b6b8:	346399aa 	ori	v1,v1,0x99aa
9d00b6bc:	ac43f230 	sw	v1,-3536(v0)
9d00b6c0:	3c02bf81 	lui	v0,0xbf81
9d00b6c4:	24030001 	li	v1,1
9d00b6c8:	ac43f618 	sw	v1,-2536(v0)
9d00b6cc:	3c02bf81 	lui	v0,0xbf81
9d00b6d0:	8c42f610 	lw	v0,-2544(v0)
9d00b6d4:	0b402da8 	j	9d00b6a0 <__pic32_software_reset+0x8>
9d00b6d8:	00000000 	nop

9d00b6dc <__floatunsidf>:
9d00b6dc:	27bdffe8 	addiu	sp,sp,-24
9d00b6e0:	afb00010 	sw	s0,16(sp)
9d00b6e4:	afbf0014 	sw	ra,20(sp)
9d00b6e8:	0f402cc4 	jal	9d00b310 <__floatsidf>
9d00b6ec:	00808025 	move	s0,a0
9d00b6f0:	06010006 	bgez	s0,9d00b70c <__floatunsidf+0x30>
9d00b6f4:	00602825 	move	a1,v1
9d00b6f8:	3c049d00 	lui	a0,0x9d00
9d00b6fc:	8c867528 	lw	a2,29992(a0)
9d00b700:	8c87752c 	lw	a3,29996(a0)
9d00b704:	0f402404 	jal	9d009010 <__adddf3>
9d00b708:	00402025 	move	a0,v0
9d00b70c:	8fbf0014 	lw	ra,20(sp)
9d00b710:	8fb00010 	lw	s0,16(sp)
9d00b714:	03e00008 	jr	ra
9d00b718:	27bd0018 	addiu	sp,sp,24

Disassembly of section .text.__sio_sprintf_deEfFgGn:

9d00b71c <__sio_sprintf_deEfFgGn>:
9d00b71c:	27bdffe8 	addiu	sp,sp,-24
9d00b720:	afbf0014 	sw	ra,20(sp)
9d00b724:	0f402946 	jal	9d00a518 <__fmt_d>
9d00b728:	00000000 	nop
9d00b72c:	0f401d6a 	jal	9d0075a8 <__fmt_fp>
9d00b730:	00000000 	nop
9d00b734:	0f402d5c 	jal	9d00b570 <__pop_float>
9d00b738:	00000000 	nop
9d00b73c:	0f4028e4 	jal	9d00a390 <__pop_int>
9d00b740:	00000000 	nop
9d00b744:	0f402b7d 	jal	9d00adf4 <__pop_ptr>
9d00b748:	00000000 	nop
9d00b74c:	8fbf0014 	lw	ra,20(sp)
9d00b750:	03e00008 	jr	ra
9d00b754:	27bd0018 	addiu	sp,sp,24

Disassembly of section .text.__vfprintf:

9d00b758 <__vfprintf>:
9d00b758:	27bdffe0 	addiu	sp,sp,-32
9d00b75c:	afb00018 	sw	s0,24(sp)
9d00b760:	afa60010 	sw	a2,16(sp)
9d00b764:	00808025 	move	s0,a0
9d00b768:	afbf001c 	sw	ra,28(sp)
9d00b76c:	0f40216b 	jal	9d0085ac <__printf_core>
9d00b770:	27a60010 	addiu	a2,sp,16
9d00b774:	8e030004 	lw	v1,4(s0)
9d00b778:	8fbf001c 	lw	ra,28(sp)
9d00b77c:	2404ffff 	li	a0,-1
9d00b780:	30630010 	andi	v1,v1,0x10
9d00b784:	0083100b 	movn	v0,a0,v1
9d00b788:	8fb00018 	lw	s0,24(sp)
9d00b78c:	03e00008 	jr	ra
9d00b790:	27bd0020 	addiu	sp,sp,32

Disassembly of section .text:

9d00b794 <__lshrdi3>:
9d00b794:	10c00008 	beqz	a2,9d00b7b8 <__lshrdi3+0x24>
9d00b798:	00801025 	move	v0,a0
9d00b79c:	24030020 	li	v1,32
9d00b7a0:	00661823 	subu	v1,v1,a2
9d00b7a4:	1c600006 	bgtz	v1,9d00b7c0 <__lshrdi3+0x2c>
9d00b7a8:	00c52006 	srlv	a0,a1,a2
9d00b7ac:	00002025 	move	a0,zero
9d00b7b0:	00c51006 	srlv	v0,a1,a2
9d00b7b4:	00802825 	move	a1,a0
9d00b7b8:	03e00008 	jr	ra
9d00b7bc:	00a01825 	move	v1,a1
9d00b7c0:	00c21006 	srlv	v0,v0,a2
9d00b7c4:	00652804 	sllv	a1,a1,v1
9d00b7c8:	1000fffa 	b	9d00b7b4 <__lshrdi3+0x20>
9d00b7cc:	00451025 	or	v0,v0,a1

9d00b7d0 <__ashldi3>:
9d00b7d0:	10c00008 	beqz	a2,9d00b7f4 <__ashldi3+0x24>
9d00b7d4:	00801025 	move	v0,a0
9d00b7d8:	24040020 	li	a0,32
9d00b7dc:	00862023 	subu	a0,a0,a2
9d00b7e0:	5c800006 	bgtzl	a0,9d00b7fc <__ashldi3+0x2c>
9d00b7e4:	00c21804 	sllv	v1,v0,a2
9d00b7e8:	00001825 	move	v1,zero
9d00b7ec:	00c22804 	sllv	a1,v0,a2
9d00b7f0:	00601025 	move	v0,v1
9d00b7f4:	03e00008 	jr	ra
9d00b7f8:	00a01825 	move	v1,a1
9d00b7fc:	00c52804 	sllv	a1,a1,a2
9d00b800:	00821006 	srlv	v0,v0,a0
9d00b804:	1000fffa 	b	9d00b7f0 <__ashldi3+0x20>
9d00b808:	00a22825 	or	a1,a1,v0

Disassembly of section .text.strlen:

9d00b80c <strlen>:
9d00b80c:	80820000 	lb	v0,0(a0)
9d00b810:	10400008 	beqz	v0,9d00b834 <strlen+0x28>
9d00b814:	00000000 	nop
9d00b818:	00801025 	move	v0,a0
9d00b81c:	24420001 	addiu	v0,v0,1
9d00b820:	80430000 	lb	v1,0(v0)
9d00b824:	5460fffe 	bnezl	v1,9d00b820 <strlen+0x14>
9d00b828:	24420001 	addiu	v0,v0,1
9d00b82c:	03e00008 	jr	ra
9d00b830:	00441023 	subu	v0,v0,a0
9d00b834:	03e00008 	jr	ra
9d00b838:	00001025 	move	v0,zero

Disassembly of section .text.memcpy:

9d00b83c <memcpy>:
9d00b83c:	10c00008 	beqz	a2,9d00b860 <memcpy+0x24>
9d00b840:	00801025 	move	v0,a0
9d00b844:	00863021 	addu	a2,a0,a2
9d00b848:	00801825 	move	v1,a0
9d00b84c:	24a50001 	addiu	a1,a1,1
9d00b850:	90a7ffff 	lbu	a3,-1(a1)
9d00b854:	24630001 	addiu	v1,v1,1
9d00b858:	1466fffc 	bne	v1,a2,9d00b84c <memcpy+0x10>
9d00b85c:	a067ffff 	sb	a3,-1(v1)
9d00b860:	03e00008 	jr	ra
9d00b864:	00000000 	nop

Disassembly of section .text.__wrap_sprintf:

9d00b868 <_dsprintf_deEfFgGn>:
9d00b868:	27bdffe0 	addiu	sp,sp,-32
9d00b86c:	afa60028 	sw	a2,40(sp)
9d00b870:	27a60028 	addiu	a2,sp,40
9d00b874:	afbf001c 	sw	ra,28(sp)
9d00b878:	afa7002c 	sw	a3,44(sp)
9d00b87c:	0f402e38 	jal	9d00b8e0 <__vsprintf>
9d00b880:	afa60010 	sw	a2,16(sp)
9d00b884:	8fbf001c 	lw	ra,28(sp)
9d00b888:	03e00008 	jr	ra
9d00b88c:	27bd0020 	addiu	sp,sp,32

Disassembly of section .text.memset:

9d00b890 <memset>:
9d00b890:	10c00007 	beqz	a2,9d00b8b0 <memset+0x20>
9d00b894:	00801025 	move	v0,a0
9d00b898:	7c052c20 	seb	a1,a1
9d00b89c:	00863021 	addu	a2,a0,a2
9d00b8a0:	00801825 	move	v1,a0
9d00b8a4:	24630001 	addiu	v1,v1,1
9d00b8a8:	1466fffe 	bne	v1,a2,9d00b8a4 <memset+0x14>
9d00b8ac:	a065ffff 	sb	a1,-1(v1)
9d00b8b0:	03e00008 	jr	ra
9d00b8b4:	00000000 	nop

Disassembly of section .text.strcpy:

9d00b8b8 <strcpy>:
9d00b8b8:	27bdffe8 	addiu	sp,sp,-24
9d00b8bc:	afb00010 	sw	s0,16(sp)
9d00b8c0:	afbf0014 	sw	ra,20(sp)
9d00b8c4:	0f402e42 	jal	9d00b908 <stpcpy>
9d00b8c8:	00808025 	move	s0,a0
9d00b8cc:	8fbf0014 	lw	ra,20(sp)
9d00b8d0:	02001025 	move	v0,s0
9d00b8d4:	8fb00010 	lw	s0,16(sp)
9d00b8d8:	03e00008 	jr	ra
9d00b8dc:	27bd0018 	addiu	sp,sp,24

Disassembly of section .text.__vsprintf:

9d00b8e0 <__vsprintf>:
9d00b8e0:	00c03825 	move	a3,a2
9d00b8e4:	00a03025 	move	a2,a1
9d00b8e8:	3c057fff 	lui	a1,0x7fff
9d00b8ec:	27bdffe8 	addiu	sp,sp,-24
9d00b8f0:	afbf0014 	sw	ra,20(sp)
9d00b8f4:	0f402c66 	jal	9d00b198 <__vsnprintf>
9d00b8f8:	34a5ffff 	ori	a1,a1,0xffff
9d00b8fc:	8fbf0014 	lw	ra,20(sp)
9d00b900:	03e00008 	jr	ra
9d00b904:	27bd0018 	addiu	sp,sp,24

Disassembly of section .text.stpcpy:

9d00b908 <stpcpy>:
9d00b908:	10000002 	b	9d00b914 <stpcpy+0xc>
9d00b90c:	00801025 	move	v0,a0
9d00b910:	00c01025 	move	v0,a2
9d00b914:	24a50001 	addiu	a1,a1,1
9d00b918:	80a3ffff 	lb	v1,-1(a1)
9d00b91c:	24460001 	addiu	a2,v0,1
9d00b920:	1460fffb 	bnez	v1,9d00b910 <stpcpy+0x8>
9d00b924:	a0c3ffff 	sb	v1,-1(a2)
9d00b928:	03e00008 	jr	ra
9d00b92c:	00000000 	nop

Disassembly of section .text.tolower:

9d00b930 <tolower>:
9d00b930:	2483ffbf 	addiu	v1,a0,-65
9d00b934:	2c63001a 	sltiu	v1,v1,26
9d00b938:	10600002 	beqz	v1,9d00b944 <tolower+0x14>
9d00b93c:	00801025 	move	v0,a0
9d00b940:	34820020 	ori	v0,a0,0x20
9d00b944:	03e00008 	jr	ra
9d00b948:	00000000 	nop

Disassembly of section .text.__tolower_l:

9d00b94c <__tolower_l>:
9d00b94c:	27bdffe8 	addiu	sp,sp,-24
9d00b950:	afbf0014 	sw	ra,20(sp)
9d00b954:	0f402e4c 	jal	9d00b930 <tolower>
9d00b958:	00000000 	nop
9d00b95c:	8fbf0014 	lw	ra,20(sp)
9d00b960:	03e00008 	jr	ra
9d00b964:	27bd0018 	addiu	sp,sp,24

Disassembly of section .text:

9d00b980 <_nmi_handler>:
9d00b980:	401a6000 	mfc0	k0,c0_status
9d00b984:	3c1bffbf 	lui	k1,0xffbf
9d00b988:	377bffff 	ori	k1,k1,0xffff
9d00b98c:	035bd024 	and	k0,k0,k1
9d00b990:	409a6000 	mtc0	k0,c0_status
9d00b994:	42000018 	eret

Disassembly of section .rodata:

9d00b998 <state_table>:
9d00b998:	096c0768 906a834c c07aa074 88688000     h.l.L.j.t.z...h.
9d00b9a8:	826c8400 00008100                       ..l.....

Disassembly of section .text:

9d00b9b0 <__dinit_clear>:
9d00b9b0:	24c6ffff 	addiu	a2,a2,-1
9d00b9b4:	a0a00000 	sb	zero,0(a1)
9d00b9b8:	14c0fffd 	bnez	a2,9d00b9b0 <__dinit_clear>
9d00b9bc:	24a50001 	addiu	a1,a1,1
9d00b9c0:	03e00008 	jr	ra
9d00b9c4:	00801025 	move	v0,a0

Disassembly of section .rodata:

9d00b9c8 <_dinit_func_table>:
9d00b9c8:	9d00b9b0 9d00b218 9d00b218 9d00b218     ................
9d00b9d8:	9d00b218                                ....

Disassembly of section .dinit:

9d00b9dc <.dinit>:
9d00b9dc:	a0000000 	sb	zero,0(zero)
9d00b9e0:	0000000c 	syscall
	...

Disassembly of section .text._on_reset:

9d00b9ec <_on_reset>:
9d00b9ec:	03e00008 	jr	ra
9d00b9f0:	00000000 	nop

Disassembly of section .text._on_bootstrap:

9d00b9f4 <_on_bootstrap>:
9d00b9f4:	03e00008 	jr	ra
9d00b9f8:	00000000 	nop

Disassembly of section .text.__dummy_fmt3:

9d00b9fc <__fmt_o>:
9d00b9fc:	03e00008 	jr	ra
9d00ba00:	00001025 	move	v0,zero

Disassembly of section .text.__dummy_fmt4:

9d00ba04 <__fmt_a>:
9d00ba04:	03e00008 	jr	ra
9d00ba08:	00001025 	move	v0,zero

Disassembly of section .text.__dummy_fmts:

9d00ba0c <__fmt_s>:
9d00ba0c:	03e00008 	jr	ra
9d00ba10:	00001025 	move	v0,zero
